ARM GAS  C:\Users\CLUBRO~1\AppData\Local\Temp\ccKe4Mdk.s 			page 1


   1              		.syntax unified
   2              		.cpu cortex-m3
   3              		.fpu softvfp
   4              		.eabi_attribute 20, 1
   5              		.eabi_attribute 21, 1
   6              		.eabi_attribute 23, 3
   7              		.eabi_attribute 24, 1
   8              		.eabi_attribute 25, 1
   9              		.eabi_attribute 26, 1
  10              		.eabi_attribute 30, 1
  11              		.eabi_attribute 34, 1
  12              		.eabi_attribute 18, 4
  13              		.thumb
  14              		.syntax unified
  15              		.file	"cyfitter_cfg.c"
  16              		.text
  17              	.Ltext0:
  18              		.cfi_sections	.debug_frame
  19              		.section	.text.CyClockStartupError,"ax",%progbits
  20              		.align	2
  21              		.thumb
  22              		.thumb_func
  23              		.type	CyClockStartupError, %function
  24              	CyClockStartupError:
  25              	.LFB3:
  26              		.file 1 "Generated_Source\\PSoC5\\cyfitter_cfg.c"
   1:Generated_Source\PSoC5/cyfitter_cfg.c **** 
   2:Generated_Source\PSoC5/cyfitter_cfg.c **** /*******************************************************************************
   3:Generated_Source\PSoC5/cyfitter_cfg.c **** * File Name: cyfitter_cfg.c
   4:Generated_Source\PSoC5/cyfitter_cfg.c **** * 
   5:Generated_Source\PSoC5/cyfitter_cfg.c **** * PSoC Creator  4.2
   6:Generated_Source\PSoC5/cyfitter_cfg.c **** *
   7:Generated_Source\PSoC5/cyfitter_cfg.c **** * Description:
   8:Generated_Source\PSoC5/cyfitter_cfg.c **** * This file contains device initialization code.
   9:Generated_Source\PSoC5/cyfitter_cfg.c **** * Except for the user defined sections in CyClockStartupError(), this file should not be modified.
  10:Generated_Source\PSoC5/cyfitter_cfg.c **** * This file is automatically generated by PSoC Creator.
  11:Generated_Source\PSoC5/cyfitter_cfg.c **** *
  12:Generated_Source\PSoC5/cyfitter_cfg.c **** ********************************************************************************
  13:Generated_Source\PSoC5/cyfitter_cfg.c **** * Copyright (c) 2007-2018 Cypress Semiconductor.  All rights reserved.
  14:Generated_Source\PSoC5/cyfitter_cfg.c **** * You may use this file only in accordance with the license, terms, conditions, 
  15:Generated_Source\PSoC5/cyfitter_cfg.c **** * disclaimers, and limitations in the end user license agreement accompanying 
  16:Generated_Source\PSoC5/cyfitter_cfg.c **** * the software package with which this file was provided.
  17:Generated_Source\PSoC5/cyfitter_cfg.c **** ********************************************************************************/
  18:Generated_Source\PSoC5/cyfitter_cfg.c **** 
  19:Generated_Source\PSoC5/cyfitter_cfg.c **** #include <string.h>
  20:Generated_Source\PSoC5/cyfitter_cfg.c **** #include "cytypes.h"
  21:Generated_Source\PSoC5/cyfitter_cfg.c **** #include "cydevice_trm.h"
  22:Generated_Source\PSoC5/cyfitter_cfg.c **** #include "cyfitter.h"
  23:Generated_Source\PSoC5/cyfitter_cfg.c **** #include "CyLib.h"
  24:Generated_Source\PSoC5/cyfitter_cfg.c **** #include "cyfitter_cfg.h"
  25:Generated_Source\PSoC5/cyfitter_cfg.c **** #include "cyapicallbacks.h"
  26:Generated_Source\PSoC5/cyfitter_cfg.c **** 
  27:Generated_Source\PSoC5/cyfitter_cfg.c **** #define CY_NEED_CYCLOCKSTARTUPERROR 1
  28:Generated_Source\PSoC5/cyfitter_cfg.c **** 
  29:Generated_Source\PSoC5/cyfitter_cfg.c **** 
  30:Generated_Source\PSoC5/cyfitter_cfg.c **** #if defined(__GNUC__) || defined(__ARMCC_VERSION)
  31:Generated_Source\PSoC5/cyfitter_cfg.c ****     #define CYPACKED 
ARM GAS  C:\Users\CLUBRO~1\AppData\Local\Temp\ccKe4Mdk.s 			page 2


  32:Generated_Source\PSoC5/cyfitter_cfg.c ****     #define CYPACKED_ATTR __attribute__ ((packed))
  33:Generated_Source\PSoC5/cyfitter_cfg.c ****     #define CYALIGNED __attribute__ ((aligned))
  34:Generated_Source\PSoC5/cyfitter_cfg.c ****     #define CY_CFG_UNUSED __attribute__ ((unused))
  35:Generated_Source\PSoC5/cyfitter_cfg.c ****     #ifndef CY_CFG_SECTION
  36:Generated_Source\PSoC5/cyfitter_cfg.c ****         #define CY_CFG_SECTION __attribute__ ((section(".psocinit")))
  37:Generated_Source\PSoC5/cyfitter_cfg.c ****     #endif
  38:Generated_Source\PSoC5/cyfitter_cfg.c ****     
  39:Generated_Source\PSoC5/cyfitter_cfg.c ****     #if defined(__ARMCC_VERSION)
  40:Generated_Source\PSoC5/cyfitter_cfg.c ****         #define CY_CFG_MEMORY_BARRIER() __memory_changed()
  41:Generated_Source\PSoC5/cyfitter_cfg.c ****     #else
  42:Generated_Source\PSoC5/cyfitter_cfg.c ****         #define CY_CFG_MEMORY_BARRIER() __sync_synchronize()
  43:Generated_Source\PSoC5/cyfitter_cfg.c ****     #endif
  44:Generated_Source\PSoC5/cyfitter_cfg.c ****     
  45:Generated_Source\PSoC5/cyfitter_cfg.c **** #elif defined(__ICCARM__)
  46:Generated_Source\PSoC5/cyfitter_cfg.c ****     #include <intrinsics.h>
  47:Generated_Source\PSoC5/cyfitter_cfg.c **** 
  48:Generated_Source\PSoC5/cyfitter_cfg.c ****     #define CYPACKED __packed
  49:Generated_Source\PSoC5/cyfitter_cfg.c ****     #define CYPACKED_ATTR 
  50:Generated_Source\PSoC5/cyfitter_cfg.c ****     #define CYALIGNED _Pragma("data_alignment=4")
  51:Generated_Source\PSoC5/cyfitter_cfg.c ****     #define CY_CFG_UNUSED _Pragma("diag_suppress=Pe177")
  52:Generated_Source\PSoC5/cyfitter_cfg.c ****     #define CY_CFG_SECTION _Pragma("location=\".psocinit\"")
  53:Generated_Source\PSoC5/cyfitter_cfg.c ****     
  54:Generated_Source\PSoC5/cyfitter_cfg.c ****     #define CY_CFG_MEMORY_BARRIER() __DMB()
  55:Generated_Source\PSoC5/cyfitter_cfg.c ****     
  56:Generated_Source\PSoC5/cyfitter_cfg.c **** #else
  57:Generated_Source\PSoC5/cyfitter_cfg.c ****     #error Unsupported toolchain
  58:Generated_Source\PSoC5/cyfitter_cfg.c **** #endif
  59:Generated_Source\PSoC5/cyfitter_cfg.c **** 
  60:Generated_Source\PSoC5/cyfitter_cfg.c **** #ifndef CYCODE
  61:Generated_Source\PSoC5/cyfitter_cfg.c ****     #define CYCODE
  62:Generated_Source\PSoC5/cyfitter_cfg.c **** #endif
  63:Generated_Source\PSoC5/cyfitter_cfg.c **** #ifndef CYDATA
  64:Generated_Source\PSoC5/cyfitter_cfg.c ****     #define CYDATA
  65:Generated_Source\PSoC5/cyfitter_cfg.c **** #endif
  66:Generated_Source\PSoC5/cyfitter_cfg.c **** #ifndef CYFAR
  67:Generated_Source\PSoC5/cyfitter_cfg.c ****     #define CYFAR
  68:Generated_Source\PSoC5/cyfitter_cfg.c **** #endif
  69:Generated_Source\PSoC5/cyfitter_cfg.c **** #ifndef CYXDATA
  70:Generated_Source\PSoC5/cyfitter_cfg.c ****     #define CYXDATA
  71:Generated_Source\PSoC5/cyfitter_cfg.c **** #endif
  72:Generated_Source\PSoC5/cyfitter_cfg.c **** 
  73:Generated_Source\PSoC5/cyfitter_cfg.c **** 
  74:Generated_Source\PSoC5/cyfitter_cfg.c **** CY_CFG_UNUSED
  75:Generated_Source\PSoC5/cyfitter_cfg.c **** static void CYMEMZERO(void *s, size_t n);
  76:Generated_Source\PSoC5/cyfitter_cfg.c **** CY_CFG_UNUSED
  77:Generated_Source\PSoC5/cyfitter_cfg.c **** static void CYMEMZERO(void *s, size_t n)
  78:Generated_Source\PSoC5/cyfitter_cfg.c **** {
  79:Generated_Source\PSoC5/cyfitter_cfg.c **** 	(void)memset(s, 0, n);
  80:Generated_Source\PSoC5/cyfitter_cfg.c **** }
  81:Generated_Source\PSoC5/cyfitter_cfg.c **** CY_CFG_UNUSED
  82:Generated_Source\PSoC5/cyfitter_cfg.c **** static void CYCONFIGCPY(void *dest, const void *src, size_t n);
  83:Generated_Source\PSoC5/cyfitter_cfg.c **** CY_CFG_UNUSED
  84:Generated_Source\PSoC5/cyfitter_cfg.c **** static void CYCONFIGCPY(void *dest, const void *src, size_t n)
  85:Generated_Source\PSoC5/cyfitter_cfg.c **** {
  86:Generated_Source\PSoC5/cyfitter_cfg.c **** 	(void)memcpy(dest, src, n);
  87:Generated_Source\PSoC5/cyfitter_cfg.c **** }
  88:Generated_Source\PSoC5/cyfitter_cfg.c **** CY_CFG_UNUSED
ARM GAS  C:\Users\CLUBRO~1\AppData\Local\Temp\ccKe4Mdk.s 			page 3


  89:Generated_Source\PSoC5/cyfitter_cfg.c **** static void CYCONFIGCPYCODE(void *dest, const void *src, size_t n);
  90:Generated_Source\PSoC5/cyfitter_cfg.c **** CY_CFG_UNUSED
  91:Generated_Source\PSoC5/cyfitter_cfg.c **** static void CYCONFIGCPYCODE(void *dest, const void *src, size_t n)
  92:Generated_Source\PSoC5/cyfitter_cfg.c **** {
  93:Generated_Source\PSoC5/cyfitter_cfg.c **** 	(void)memcpy(dest, src, n);
  94:Generated_Source\PSoC5/cyfitter_cfg.c **** }
  95:Generated_Source\PSoC5/cyfitter_cfg.c **** 
  96:Generated_Source\PSoC5/cyfitter_cfg.c **** 
  97:Generated_Source\PSoC5/cyfitter_cfg.c **** 
  98:Generated_Source\PSoC5/cyfitter_cfg.c **** 
  99:Generated_Source\PSoC5/cyfitter_cfg.c **** /* Clock startup error codes                                                   */
 100:Generated_Source\PSoC5/cyfitter_cfg.c **** #define CYCLOCKSTART_NO_ERROR    0u
 101:Generated_Source\PSoC5/cyfitter_cfg.c **** #define CYCLOCKSTART_XTAL_ERROR  1u
 102:Generated_Source\PSoC5/cyfitter_cfg.c **** #define CYCLOCKSTART_32KHZ_ERROR 2u
 103:Generated_Source\PSoC5/cyfitter_cfg.c **** #define CYCLOCKSTART_PLL_ERROR   3u
 104:Generated_Source\PSoC5/cyfitter_cfg.c **** #define CYCLOCKSTART_FLL_ERROR   4u
 105:Generated_Source\PSoC5/cyfitter_cfg.c **** #define CYCLOCKSTART_WCO_ERROR   5u
 106:Generated_Source\PSoC5/cyfitter_cfg.c **** 
 107:Generated_Source\PSoC5/cyfitter_cfg.c **** 
 108:Generated_Source\PSoC5/cyfitter_cfg.c **** #ifdef CY_NEED_CYCLOCKSTARTUPERROR
 109:Generated_Source\PSoC5/cyfitter_cfg.c **** /*******************************************************************************
 110:Generated_Source\PSoC5/cyfitter_cfg.c **** * Function Name: CyClockStartupError
 111:Generated_Source\PSoC5/cyfitter_cfg.c **** ********************************************************************************
 112:Generated_Source\PSoC5/cyfitter_cfg.c **** * Summary:
 113:Generated_Source\PSoC5/cyfitter_cfg.c **** *  If an error is encountered during clock configuration (crystal startup error,
 114:Generated_Source\PSoC5/cyfitter_cfg.c **** *  PLL lock error, etc.), the system will end up here.  Unless reimplemented by
 115:Generated_Source\PSoC5/cyfitter_cfg.c **** *  the customer, this function will stop in an infinite loop.
 116:Generated_Source\PSoC5/cyfitter_cfg.c **** *
 117:Generated_Source\PSoC5/cyfitter_cfg.c **** * Parameters:
 118:Generated_Source\PSoC5/cyfitter_cfg.c **** *   void
 119:Generated_Source\PSoC5/cyfitter_cfg.c **** *
 120:Generated_Source\PSoC5/cyfitter_cfg.c **** * Return:
 121:Generated_Source\PSoC5/cyfitter_cfg.c **** *   void
 122:Generated_Source\PSoC5/cyfitter_cfg.c **** *
 123:Generated_Source\PSoC5/cyfitter_cfg.c **** *******************************************************************************/
 124:Generated_Source\PSoC5/cyfitter_cfg.c **** CY_CFG_UNUSED
 125:Generated_Source\PSoC5/cyfitter_cfg.c **** static void CyClockStartupError(uint8 errorCode);
 126:Generated_Source\PSoC5/cyfitter_cfg.c **** CY_CFG_UNUSED
 127:Generated_Source\PSoC5/cyfitter_cfg.c **** static void CyClockStartupError(uint8 errorCode)
 128:Generated_Source\PSoC5/cyfitter_cfg.c **** {
  27              		.loc 1 128 0
  28              		.cfi_startproc
  29              		@ Volatile: function does not return.
  30              		@ args = 0, pretend = 0, frame = 0
  31              		@ frame_needed = 0, uses_anonymous_args = 0
  32              		@ link register save eliminated.
  33              	.LVL0:
  34              	.L2:
  35 0000 FEE7     		b	.L2
  36              		.cfi_endproc
  37              	.LFE3:
  38              		.size	CyClockStartupError, .-CyClockStartupError
  39 0002 00BF     		.section	.text.cfg_write_bytes32,"ax",%progbits
  40              		.align	2
  41              		.thumb
  42              		.thumb_func
  43              		.type	cfg_write_bytes32, %function
ARM GAS  C:\Users\CLUBRO~1\AppData\Local\Temp\ccKe4Mdk.s 			page 4


  44              	cfg_write_bytes32:
  45              	.LFB4:
 129:Generated_Source\PSoC5/cyfitter_cfg.c ****     /* To remove the compiler warning if errorCode not used.                */
 130:Generated_Source\PSoC5/cyfitter_cfg.c ****     errorCode = errorCode;
 131:Generated_Source\PSoC5/cyfitter_cfg.c **** 
 132:Generated_Source\PSoC5/cyfitter_cfg.c ****     /* If we have a clock startup error (bad MHz crystal, PLL lock, etc.),  */
 133:Generated_Source\PSoC5/cyfitter_cfg.c ****     /* we will end up here to allow the customer to implement something to  */
 134:Generated_Source\PSoC5/cyfitter_cfg.c ****     /* deal with the clock condition.                                       */
 135:Generated_Source\PSoC5/cyfitter_cfg.c **** 
 136:Generated_Source\PSoC5/cyfitter_cfg.c **** #ifdef CY_CFG_CLOCK_STARTUP_ERROR_CALLBACK
 137:Generated_Source\PSoC5/cyfitter_cfg.c ****     CY_CFG_Clock_Startup_ErrorCallback();
 138:Generated_Source\PSoC5/cyfitter_cfg.c **** #else
 139:Generated_Source\PSoC5/cyfitter_cfg.c ****     /*  If not using CY_CFG_CLOCK_STARTUP_ERROR_CALLBACK, place your clock startup code here. */
 140:Generated_Source\PSoC5/cyfitter_cfg.c ****     /* `#START CyClockStartupError` */
 141:Generated_Source\PSoC5/cyfitter_cfg.c **** 
 142:Generated_Source\PSoC5/cyfitter_cfg.c **** 
 143:Generated_Source\PSoC5/cyfitter_cfg.c **** 
 144:Generated_Source\PSoC5/cyfitter_cfg.c ****     /* `#END` */
 145:Generated_Source\PSoC5/cyfitter_cfg.c **** 
 146:Generated_Source\PSoC5/cyfitter_cfg.c ****     while(1) {}
 147:Generated_Source\PSoC5/cyfitter_cfg.c **** #endif /* CY_CFG_CLOCK_STARTUP_ERROR_CALLBACK */
 148:Generated_Source\PSoC5/cyfitter_cfg.c **** }
 149:Generated_Source\PSoC5/cyfitter_cfg.c **** #endif
 150:Generated_Source\PSoC5/cyfitter_cfg.c **** 
 151:Generated_Source\PSoC5/cyfitter_cfg.c **** #define CY_CFG_BASE_ADDR_COUNT 24u
 152:Generated_Source\PSoC5/cyfitter_cfg.c **** CYPACKED typedef struct
 153:Generated_Source\PSoC5/cyfitter_cfg.c **** {
 154:Generated_Source\PSoC5/cyfitter_cfg.c **** 	uint8 offset;
 155:Generated_Source\PSoC5/cyfitter_cfg.c **** 	uint8 value;
 156:Generated_Source\PSoC5/cyfitter_cfg.c **** } CYPACKED_ATTR cy_cfg_addrvalue_t;
 157:Generated_Source\PSoC5/cyfitter_cfg.c **** 
 158:Generated_Source\PSoC5/cyfitter_cfg.c **** #define cy_cfg_addr_table ((const uint32 CYFAR *)0x48000000u)
 159:Generated_Source\PSoC5/cyfitter_cfg.c **** #define cy_cfg_data_table ((const cy_cfg_addrvalue_t CYFAR *)0x48000060u)
 160:Generated_Source\PSoC5/cyfitter_cfg.c **** 
 161:Generated_Source\PSoC5/cyfitter_cfg.c **** /* IOPINS0_0 Address: CYREG_PRT0_DM0 Size (bytes): 8 */
 162:Generated_Source\PSoC5/cyfitter_cfg.c **** #define BS_IOPINS0_0_VAL ((const uint8 CYFAR *)0x4800015Cu)
 163:Generated_Source\PSoC5/cyfitter_cfg.c **** 
 164:Generated_Source\PSoC5/cyfitter_cfg.c **** /* IOPINS0_7 Address: CYREG_PRT12_DM0 Size (bytes): 8 */
 165:Generated_Source\PSoC5/cyfitter_cfg.c **** #define BS_IOPINS0_7_VAL ((const uint8 CYFAR *)0x48000164u)
 166:Generated_Source\PSoC5/cyfitter_cfg.c **** 
 167:Generated_Source\PSoC5/cyfitter_cfg.c **** /* IOPINS0_8 Address: CYREG_PRT15_DM0 Size (bytes): 8 */
 168:Generated_Source\PSoC5/cyfitter_cfg.c **** #define BS_IOPINS0_8_VAL ((const uint8 CYFAR *)0x4800016Cu)
 169:Generated_Source\PSoC5/cyfitter_cfg.c **** 
 170:Generated_Source\PSoC5/cyfitter_cfg.c **** /* IOPINS0_1 Address: CYREG_PRT1_DM0 Size (bytes): 8 */
 171:Generated_Source\PSoC5/cyfitter_cfg.c **** #define BS_IOPINS0_1_VAL ((const uint8 CYFAR *)0x48000174u)
 172:Generated_Source\PSoC5/cyfitter_cfg.c **** 
 173:Generated_Source\PSoC5/cyfitter_cfg.c **** /* IOPINS0_2 Address: CYREG_PRT2_DR Size (bytes): 10 */
 174:Generated_Source\PSoC5/cyfitter_cfg.c **** #define BS_IOPINS0_2_VAL ((const uint8 CYFAR *)0x4800017Cu)
 175:Generated_Source\PSoC5/cyfitter_cfg.c **** 
 176:Generated_Source\PSoC5/cyfitter_cfg.c **** /* IOPINS0_3 Address: CYREG_PRT3_DM0 Size (bytes): 8 */
 177:Generated_Source\PSoC5/cyfitter_cfg.c **** #define BS_IOPINS0_3_VAL ((const uint8 CYFAR *)0x48000188u)
 178:Generated_Source\PSoC5/cyfitter_cfg.c **** 
 179:Generated_Source\PSoC5/cyfitter_cfg.c **** 
 180:Generated_Source\PSoC5/cyfitter_cfg.c **** /*******************************************************************************
 181:Generated_Source\PSoC5/cyfitter_cfg.c **** * Function Name: cfg_write_bytes32
 182:Generated_Source\PSoC5/cyfitter_cfg.c **** ********************************************************************************
 183:Generated_Source\PSoC5/cyfitter_cfg.c **** * Summary:
ARM GAS  C:\Users\CLUBRO~1\AppData\Local\Temp\ccKe4Mdk.s 			page 5


 184:Generated_Source\PSoC5/cyfitter_cfg.c **** *  This function is used for setting up the chip configuration areas that
 185:Generated_Source\PSoC5/cyfitter_cfg.c **** *  contain relatively sparse data.
 186:Generated_Source\PSoC5/cyfitter_cfg.c **** *
 187:Generated_Source\PSoC5/cyfitter_cfg.c **** * Parameters:
 188:Generated_Source\PSoC5/cyfitter_cfg.c **** *   void
 189:Generated_Source\PSoC5/cyfitter_cfg.c **** *
 190:Generated_Source\PSoC5/cyfitter_cfg.c **** * Return:
 191:Generated_Source\PSoC5/cyfitter_cfg.c **** *   void
 192:Generated_Source\PSoC5/cyfitter_cfg.c **** *
 193:Generated_Source\PSoC5/cyfitter_cfg.c **** *******************************************************************************/
 194:Generated_Source\PSoC5/cyfitter_cfg.c **** static void cfg_write_bytes32(const uint32 addr_table[], const cy_cfg_addrvalue_t data_table[]);
 195:Generated_Source\PSoC5/cyfitter_cfg.c **** static void cfg_write_bytes32(const uint32 addr_table[], const cy_cfg_addrvalue_t data_table[])
 196:Generated_Source\PSoC5/cyfitter_cfg.c **** {
  46              		.loc 1 196 0
  47              		.cfi_startproc
  48              		@ args = 0, pretend = 0, frame = 0
  49              		@ frame_needed = 0, uses_anonymous_args = 0
  50              		@ link register save eliminated.
  51              	.LVL1:
  52              		.loc 1 196 0
  53 0000 F0B4     		push	{r4, r5, r6, r7}
  54              		.cfi_def_cfa_offset 16
  55              		.cfi_offset 4, -16
  56              		.cfi_offset 5, -12
  57              		.cfi_offset 6, -8
  58              		.cfi_offset 7, -4
  59              	.LVL2:
 197:Generated_Source\PSoC5/cyfitter_cfg.c **** 	/* For 32-bit little-endian architectures */
 198:Generated_Source\PSoC5/cyfitter_cfg.c **** 	uint32 i, j = 0u;
  60              		.loc 1 198 0
  61 0002 0022     		movs	r2, #0
 199:Generated_Source\PSoC5/cyfitter_cfg.c **** 	for (i = 0u; i < CY_CFG_BASE_ADDR_COUNT; i++)
  62              		.loc 1 199 0
  63 0004 1746     		mov	r7, r2
  64 0006 11E0     		b	.L4
  65              	.LVL3:
  66              	.L7:
  67              	.LBB2:
 200:Generated_Source\PSoC5/cyfitter_cfg.c **** 	{
 201:Generated_Source\PSoC5/cyfitter_cfg.c **** 		uint32 baseAddr = addr_table[i];
  68              		.loc 1 201 0
  69 0008 50F82760 		ldr	r6, [r0, r7, lsl #2]
  70              	.LVL4:
 202:Generated_Source\PSoC5/cyfitter_cfg.c **** 		uint8 count = (uint8)baseAddr;
  71              		.loc 1 202 0
  72 000c F3B2     		uxtb	r3, r6
  73              	.LVL5:
 203:Generated_Source\PSoC5/cyfitter_cfg.c **** 		baseAddr &= 0xFFFFFF00u;
  74              		.loc 1 203 0
  75 000e 26F0FF06 		bic	r6, r6, #255
  76              	.LVL6:
 204:Generated_Source\PSoC5/cyfitter_cfg.c **** 		while (count != 0u)
  77              		.loc 1 204 0
  78 0012 08E0     		b	.L5
  79              	.L6:
 205:Generated_Source\PSoC5/cyfitter_cfg.c **** 		{
 206:Generated_Source\PSoC5/cyfitter_cfg.c **** 			CY_SET_REG8((void *)(baseAddr + data_table[j].offset), data_table[j].value);
ARM GAS  C:\Users\CLUBRO~1\AppData\Local\Temp\ccKe4Mdk.s 			page 6


  80              		.loc 1 206 0
  81 0014 01EB4205 		add	r5, r1, r2, lsl #1
  82 0018 11F81240 		ldrb	r4, [r1, r2, lsl #1]	@ zero_extendqisi2
  83 001c 6D78     		ldrb	r5, [r5, #1]	@ zero_extendqisi2
  84 001e A555     		strb	r5, [r4, r6]
 207:Generated_Source\PSoC5/cyfitter_cfg.c **** 			j++;
  85              		.loc 1 207 0
  86 0020 0132     		adds	r2, r2, #1
  87              	.LVL7:
 208:Generated_Source\PSoC5/cyfitter_cfg.c **** 			count--;
  88              		.loc 1 208 0
  89 0022 013B     		subs	r3, r3, #1
  90              	.LVL8:
  91 0024 DBB2     		uxtb	r3, r3
  92              	.LVL9:
  93              	.L5:
 204:Generated_Source\PSoC5/cyfitter_cfg.c **** 		{
  94              		.loc 1 204 0
  95 0026 002B     		cmp	r3, #0
  96 0028 F4D1     		bne	.L6
  97              	.LBE2:
 199:Generated_Source\PSoC5/cyfitter_cfg.c **** 	{
  98              		.loc 1 199 0 discriminator 2
  99 002a 0137     		adds	r7, r7, #1
 100              	.LVL10:
 101              	.L4:
 199:Generated_Source\PSoC5/cyfitter_cfg.c **** 	{
 102              		.loc 1 199 0 is_stmt 0 discriminator 1
 103 002c 172F     		cmp	r7, #23
 104 002e EBD9     		bls	.L7
 209:Generated_Source\PSoC5/cyfitter_cfg.c **** 		}
 210:Generated_Source\PSoC5/cyfitter_cfg.c **** 	}
 211:Generated_Source\PSoC5/cyfitter_cfg.c **** }
 105              		.loc 1 211 0 is_stmt 1
 106 0030 F0BC     		pop	{r4, r5, r6, r7}
 107              		.cfi_restore 7
 108              		.cfi_restore 6
 109              		.cfi_restore 5
 110              		.cfi_restore 4
 111              		.cfi_def_cfa_offset 0
 112              	.LVL11:
 113 0032 7047     		bx	lr
 114              		.cfi_endproc
 115              	.LFE4:
 116              		.size	cfg_write_bytes32, .-cfg_write_bytes32
 117              		.section	.text.AnalogSetDefault,"ax",%progbits
 118              		.align	2
 119              		.thumb
 120              		.thumb_func
 121              		.type	AnalogSetDefault, %function
 122              	AnalogSetDefault:
 123              	.LFB6:
 212:Generated_Source\PSoC5/cyfitter_cfg.c **** 
 213:Generated_Source\PSoC5/cyfitter_cfg.c **** /*******************************************************************************
 214:Generated_Source\PSoC5/cyfitter_cfg.c **** * Function Name: ClockSetup
 215:Generated_Source\PSoC5/cyfitter_cfg.c **** ********************************************************************************
 216:Generated_Source\PSoC5/cyfitter_cfg.c **** *
ARM GAS  C:\Users\CLUBRO~1\AppData\Local\Temp\ccKe4Mdk.s 			page 7


 217:Generated_Source\PSoC5/cyfitter_cfg.c **** * Summary:
 218:Generated_Source\PSoC5/cyfitter_cfg.c **** *  Performs the initialization of all of the clocks in the device based on the
 219:Generated_Source\PSoC5/cyfitter_cfg.c **** *  settings in the Clock tab of the DWR.  This includes enabling the requested
 220:Generated_Source\PSoC5/cyfitter_cfg.c **** *  clocks and setting the necessary dividers to produce the desired frequency. 
 221:Generated_Source\PSoC5/cyfitter_cfg.c **** *
 222:Generated_Source\PSoC5/cyfitter_cfg.c **** * Parameters:
 223:Generated_Source\PSoC5/cyfitter_cfg.c **** *  void
 224:Generated_Source\PSoC5/cyfitter_cfg.c **** *
 225:Generated_Source\PSoC5/cyfitter_cfg.c **** * Return:
 226:Generated_Source\PSoC5/cyfitter_cfg.c **** *  void
 227:Generated_Source\PSoC5/cyfitter_cfg.c **** *
 228:Generated_Source\PSoC5/cyfitter_cfg.c **** *******************************************************************************/
 229:Generated_Source\PSoC5/cyfitter_cfg.c **** static void ClockSetup(void);
 230:Generated_Source\PSoC5/cyfitter_cfg.c **** static void ClockSetup(void)
 231:Generated_Source\PSoC5/cyfitter_cfg.c **** {
 232:Generated_Source\PSoC5/cyfitter_cfg.c **** 	uint32 timeout;
 233:Generated_Source\PSoC5/cyfitter_cfg.c **** 	uint8 pllLock;
 234:Generated_Source\PSoC5/cyfitter_cfg.c **** 
 235:Generated_Source\PSoC5/cyfitter_cfg.c **** 
 236:Generated_Source\PSoC5/cyfitter_cfg.c **** 	/* Configure Digital Clocks based on settings from Clock DWR */
 237:Generated_Source\PSoC5/cyfitter_cfg.c **** 	CY_SET_XTND_REG16((void CYFAR *)(CYREG_CLKDIST_DCFG0_CFG0), 0x00EFu);
 238:Generated_Source\PSoC5/cyfitter_cfg.c **** 	CY_SET_XTND_REG8((void CYFAR *)(CYREG_CLKDIST_DCFG0_CFG0 + 0x2u), 0x18u);
 239:Generated_Source\PSoC5/cyfitter_cfg.c **** 	CY_SET_XTND_REG16((void CYFAR *)(CYREG_CLKDIST_DCFG1_CFG0), 0x00EFu);
 240:Generated_Source\PSoC5/cyfitter_cfg.c **** 	CY_SET_XTND_REG8((void CYFAR *)(CYREG_CLKDIST_DCFG1_CFG0 + 0x2u), 0x18u);
 241:Generated_Source\PSoC5/cyfitter_cfg.c **** 	CY_SET_XTND_REG16((void CYFAR *)(CYREG_CLKDIST_DCFG2_CFG0), 0x00EFu);
 242:Generated_Source\PSoC5/cyfitter_cfg.c **** 	CY_SET_XTND_REG8((void CYFAR *)(CYREG_CLKDIST_DCFG2_CFG0 + 0x2u), 0x18u);
 243:Generated_Source\PSoC5/cyfitter_cfg.c **** 	CY_SET_XTND_REG16((void CYFAR *)(CYREG_CLKDIST_DCFG3_CFG0), 0x00EFu);
 244:Generated_Source\PSoC5/cyfitter_cfg.c **** 	CY_SET_XTND_REG8((void CYFAR *)(CYREG_CLKDIST_DCFG3_CFG0 + 0x2u), 0x18u);
 245:Generated_Source\PSoC5/cyfitter_cfg.c **** 	CY_SET_XTND_REG16((void CYFAR *)(CYREG_CLKDIST_DCFG4_CFG0), 0x03E7u);
 246:Generated_Source\PSoC5/cyfitter_cfg.c **** 	CY_SET_XTND_REG8((void CYFAR *)(CYREG_CLKDIST_DCFG4_CFG0 + 0x2u), 0x1Bu);
 247:Generated_Source\PSoC5/cyfitter_cfg.c **** 
 248:Generated_Source\PSoC5/cyfitter_cfg.c **** 	/* Configure ILO based on settings from Clock DWR */
 249:Generated_Source\PSoC5/cyfitter_cfg.c **** 	CY_SET_XTND_REG8((void CYFAR *)(CYREG_SLOWCLK_ILO_CR0), 0x02u);
 250:Generated_Source\PSoC5/cyfitter_cfg.c **** 	CY_SET_XTND_REG8((void CYFAR *)(CYREG_CLKDIST_CR), 0x08u);
 251:Generated_Source\PSoC5/cyfitter_cfg.c **** 
 252:Generated_Source\PSoC5/cyfitter_cfg.c **** 	/* Configure IMO based on settings from Clock DWR */
 253:Generated_Source\PSoC5/cyfitter_cfg.c **** 	CY_SET_XTND_REG8((void CYFAR *)(CYREG_FASTCLK_IMO_CR), 0x03u);
 254:Generated_Source\PSoC5/cyfitter_cfg.c **** 	CY_SET_XTND_REG8((void CYFAR *)(CYREG_IMO_TR1), (CY_GET_XTND_REG8((void CYFAR *)CYREG_FLSHID_CUST_
 255:Generated_Source\PSoC5/cyfitter_cfg.c **** 
 256:Generated_Source\PSoC5/cyfitter_cfg.c **** 	/* Configure PLL based on settings from Clock DWR */
 257:Generated_Source\PSoC5/cyfitter_cfg.c **** 	CY_SET_XTND_REG16((void CYFAR *)(CYREG_FASTCLK_PLL_P), 0x0008u);
 258:Generated_Source\PSoC5/cyfitter_cfg.c **** 	CY_SET_XTND_REG16((void CYFAR *)(CYREG_FASTCLK_PLL_CFG0), 0x1251u);
 259:Generated_Source\PSoC5/cyfitter_cfg.c **** 	/* Wait up to 250us for the PLL to lock */
 260:Generated_Source\PSoC5/cyfitter_cfg.c **** 	pllLock = 0u;
 261:Generated_Source\PSoC5/cyfitter_cfg.c **** 	for (timeout = 250u / 10u; (timeout > 0u) && (pllLock != 0x03u); timeout--)
 262:Generated_Source\PSoC5/cyfitter_cfg.c **** 	{ 
 263:Generated_Source\PSoC5/cyfitter_cfg.c **** 		pllLock = 0x03u & ((uint8)((uint8)pllLock << 1) | ((CY_GET_XTND_REG8((void CYFAR *)CYREG_FASTCLK_
 264:Generated_Source\PSoC5/cyfitter_cfg.c **** 		CyDelayCycles(10u * 48u); /* Delay 10us based on 48MHz clock */
 265:Generated_Source\PSoC5/cyfitter_cfg.c **** 	}
 266:Generated_Source\PSoC5/cyfitter_cfg.c **** 	/* If we ran out of time the PLL didn't lock so go to the error function */
 267:Generated_Source\PSoC5/cyfitter_cfg.c **** 	if (timeout == 0u)
 268:Generated_Source\PSoC5/cyfitter_cfg.c **** 	{
 269:Generated_Source\PSoC5/cyfitter_cfg.c **** 		CyClockStartupError(CYCLOCKSTART_PLL_ERROR);
 270:Generated_Source\PSoC5/cyfitter_cfg.c **** 	}
 271:Generated_Source\PSoC5/cyfitter_cfg.c **** 
 272:Generated_Source\PSoC5/cyfitter_cfg.c **** 	/* Configure Bus/Master Clock based on settings from Clock DWR */
 273:Generated_Source\PSoC5/cyfitter_cfg.c **** 	CY_SET_XTND_REG16((void CYFAR *)(CYREG_CLKDIST_MSTR0), 0x0100u);
ARM GAS  C:\Users\CLUBRO~1\AppData\Local\Temp\ccKe4Mdk.s 			page 8


 274:Generated_Source\PSoC5/cyfitter_cfg.c **** 	CY_SET_XTND_REG8((void CYFAR *)(CYREG_CLKDIST_MSTR0), 0x07u);
 275:Generated_Source\PSoC5/cyfitter_cfg.c **** 	CY_SET_XTND_REG8((void CYFAR *)(CYREG_CLKDIST_BCFG0), 0x00u);
 276:Generated_Source\PSoC5/cyfitter_cfg.c **** 	CY_SET_XTND_REG8((void CYFAR *)(CYREG_CLKDIST_BCFG2), 0x48u);
 277:Generated_Source\PSoC5/cyfitter_cfg.c **** 	CY_SET_XTND_REG8((void CYFAR *)(CYREG_CLKDIST_MSTR0), 0x00u);
 278:Generated_Source\PSoC5/cyfitter_cfg.c **** 	CY_SET_XTND_REG8((void CYFAR *)(CYREG_CLKDIST_LD), 0x02u);
 279:Generated_Source\PSoC5/cyfitter_cfg.c **** 
 280:Generated_Source\PSoC5/cyfitter_cfg.c **** 	CY_SET_XTND_REG8((void CYFAR *)(CYREG_PM_ACT_CFG2), ((CY_GET_XTND_REG8((void CYFAR *)CYREG_PM_ACT_
 281:Generated_Source\PSoC5/cyfitter_cfg.c **** }
 282:Generated_Source\PSoC5/cyfitter_cfg.c **** 
 283:Generated_Source\PSoC5/cyfitter_cfg.c **** 
 284:Generated_Source\PSoC5/cyfitter_cfg.c **** /* Analog API Functions */
 285:Generated_Source\PSoC5/cyfitter_cfg.c **** 
 286:Generated_Source\PSoC5/cyfitter_cfg.c **** 
 287:Generated_Source\PSoC5/cyfitter_cfg.c **** /*******************************************************************************
 288:Generated_Source\PSoC5/cyfitter_cfg.c **** * Function Name: AnalogSetDefault
 289:Generated_Source\PSoC5/cyfitter_cfg.c **** ********************************************************************************
 290:Generated_Source\PSoC5/cyfitter_cfg.c **** *
 291:Generated_Source\PSoC5/cyfitter_cfg.c **** * Summary:
 292:Generated_Source\PSoC5/cyfitter_cfg.c **** *  Sets up the analog portions of the chip to default values based on chip
 293:Generated_Source\PSoC5/cyfitter_cfg.c **** *  configuration options from the project.
 294:Generated_Source\PSoC5/cyfitter_cfg.c **** *
 295:Generated_Source\PSoC5/cyfitter_cfg.c **** * Parameters:
 296:Generated_Source\PSoC5/cyfitter_cfg.c **** *  void
 297:Generated_Source\PSoC5/cyfitter_cfg.c **** *
 298:Generated_Source\PSoC5/cyfitter_cfg.c **** * Return:
 299:Generated_Source\PSoC5/cyfitter_cfg.c **** *  void
 300:Generated_Source\PSoC5/cyfitter_cfg.c **** *
 301:Generated_Source\PSoC5/cyfitter_cfg.c **** *******************************************************************************/
 302:Generated_Source\PSoC5/cyfitter_cfg.c **** static void AnalogSetDefault(void);
 303:Generated_Source\PSoC5/cyfitter_cfg.c **** static void AnalogSetDefault(void)
 304:Generated_Source\PSoC5/cyfitter_cfg.c **** {
 124              		.loc 1 304 0
 125              		.cfi_startproc
 126              		@ args = 0, pretend = 0, frame = 0
 127              		@ frame_needed = 0, uses_anonymous_args = 0
 128              		@ link register save eliminated.
 305:Generated_Source\PSoC5/cyfitter_cfg.c **** 	uint8 bg_xover_inl_trim = CY_GET_XTND_REG8((void CYFAR *)(CYREG_FLSHID_MFG_CFG_BG_XOVER_INL_TRIM +
 129              		.loc 1 305 0
 130 0000 0B4B     		ldr	r3, .L10
 131 0002 1B78     		ldrb	r3, [r3]	@ zero_extendqisi2
 132 0004 DBB2     		uxtb	r3, r3
 133              	.LVL12:
 306:Generated_Source\PSoC5/cyfitter_cfg.c **** 	CY_SET_XTND_REG8((void CYFAR *)(CYREG_BG_DFT0), (bg_xover_inl_trim & 0x07u));
 134              		.loc 1 306 0
 135 0006 03F00701 		and	r1, r3, #7
 136 000a 0A4A     		ldr	r2, .L10+4
 137 000c 1170     		strb	r1, [r2]
 307:Generated_Source\PSoC5/cyfitter_cfg.c **** 	CY_SET_XTND_REG8((void CYFAR *)(CYREG_BG_DFT1), ((bg_xover_inl_trim >> 4) & 0x0Fu));
 138              		.loc 1 307 0
 139 000e 1B09     		lsrs	r3, r3, #4
 140              	.LVL13:
 141 0010 0132     		adds	r2, r2, #1
 142 0012 1370     		strb	r3, [r2]
 308:Generated_Source\PSoC5/cyfitter_cfg.c **** 	CY_SET_XTND_REG8((void CYFAR *)CYREG_DSM0_SW0, 0x26u);
 143              		.loc 1 308 0
 144 0014 2623     		movs	r3, #38
 145 0016 02F29122 		addw	r2, r2, #657
ARM GAS  C:\Users\CLUBRO~1\AppData\Local\Temp\ccKe4Mdk.s 			page 9


 146 001a 1370     		strb	r3, [r2]
 309:Generated_Source\PSoC5/cyfitter_cfg.c **** 	CY_SET_XTND_REG8((void CYFAR *)CYREG_BUS_SW0, 0x26u);
 147              		.loc 1 309 0
 148 001c 5832     		adds	r2, r2, #88
 149 001e 1370     		strb	r3, [r2]
 310:Generated_Source\PSoC5/cyfitter_cfg.c **** 	CY_SET_XTND_REG8((void CYFAR *)CYREG_BUS_SW3, 0x01u);
 150              		.loc 1 310 0
 151 0020 0122     		movs	r2, #1
 152 0022 054B     		ldr	r3, .L10+8
 153 0024 1A70     		strb	r2, [r3]
 311:Generated_Source\PSoC5/cyfitter_cfg.c **** 	CY_SET_XTND_REG8((void CYFAR *)CYREG_PUMP_CR0, 0x44u);
 154              		.loc 1 311 0
 155 0026 4422     		movs	r2, #68
 156 0028 A3F2E523 		subw	r3, r3, #741
 157 002c 1A70     		strb	r2, [r3]
 158 002e 7047     		bx	lr
 159              	.L11:
 160              		.align	2
 161              	.L10:
 162 0030 CF010049 		.word	1224737231
 163 0034 6E580040 		.word	1073764462
 164 0038 5B5B0040 		.word	1073765211
 165              		.cfi_endproc
 166              	.LFE6:
 167              		.size	AnalogSetDefault, .-AnalogSetDefault
 168              		.section	.text.CYMEMZERO,"ax",%progbits
 169              		.align	2
 170              		.thumb
 171              		.thumb_func
 172              		.type	CYMEMZERO, %function
 173              	CYMEMZERO:
 174              	.LFB0:
  78:Generated_Source\PSoC5/cyfitter_cfg.c **** 	(void)memset(s, 0, n);
 175              		.loc 1 78 0
 176              		.cfi_startproc
 177              		@ args = 0, pretend = 0, frame = 0
 178              		@ frame_needed = 0, uses_anonymous_args = 0
 179              	.LVL14:
 180 0000 08B5     		push	{r3, lr}
 181              		.cfi_def_cfa_offset 8
 182              		.cfi_offset 3, -8
 183              		.cfi_offset 14, -4
  79:Generated_Source\PSoC5/cyfitter_cfg.c **** }
 184              		.loc 1 79 0
 185 0002 0A46     		mov	r2, r1
 186 0004 0021     		movs	r1, #0
 187              	.LVL15:
 188 0006 FFF7FEFF 		bl	memset
 189              	.LVL16:
 190 000a 08BD     		pop	{r3, pc}
 191              		.cfi_endproc
 192              	.LFE0:
 193              		.size	CYMEMZERO, .-CYMEMZERO
 194              		.section	.text.ClockSetup,"ax",%progbits
 195              		.align	2
 196              		.thumb
 197              		.thumb_func
ARM GAS  C:\Users\CLUBRO~1\AppData\Local\Temp\ccKe4Mdk.s 			page 10


 198              		.type	ClockSetup, %function
 199              	ClockSetup:
 200              	.LFB5:
 231:Generated_Source\PSoC5/cyfitter_cfg.c **** 	uint32 timeout;
 201              		.loc 1 231 0
 202              		.cfi_startproc
 203              		@ args = 0, pretend = 0, frame = 0
 204              		@ frame_needed = 0, uses_anonymous_args = 0
 205 0000 38B5     		push	{r3, r4, r5, lr}
 206              		.cfi_def_cfa_offset 16
 207              		.cfi_offset 3, -16
 208              		.cfi_offset 4, -12
 209              		.cfi_offset 5, -8
 210              		.cfi_offset 14, -4
 237:Generated_Source\PSoC5/cyfitter_cfg.c **** 	CY_SET_XTND_REG8((void CYFAR *)(CYREG_CLKDIST_DCFG0_CFG0 + 0x2u), 0x18u);
 211              		.loc 1 237 0
 212 0002 EF22     		movs	r2, #239
 213 0004 2D4B     		ldr	r3, .L20
 214 0006 1A80     		strh	r2, [r3]	@ movhi
 238:Generated_Source\PSoC5/cyfitter_cfg.c **** 	CY_SET_XTND_REG16((void CYFAR *)(CYREG_CLKDIST_DCFG1_CFG0), 0x00EFu);
 215              		.loc 1 238 0
 216 0008 1823     		movs	r3, #24
 217 000a 2D49     		ldr	r1, .L20+4
 218 000c 0B70     		strb	r3, [r1]
 239:Generated_Source\PSoC5/cyfitter_cfg.c **** 	CY_SET_XTND_REG8((void CYFAR *)(CYREG_CLKDIST_DCFG1_CFG0 + 0x2u), 0x18u);
 219              		.loc 1 239 0
 220 000e 0231     		adds	r1, r1, #2
 221 0010 0A80     		strh	r2, [r1]	@ movhi
 240:Generated_Source\PSoC5/cyfitter_cfg.c **** 	CY_SET_XTND_REG16((void CYFAR *)(CYREG_CLKDIST_DCFG2_CFG0), 0x00EFu);
 222              		.loc 1 240 0
 223 0012 0231     		adds	r1, r1, #2
 224 0014 0B70     		strb	r3, [r1]
 241:Generated_Source\PSoC5/cyfitter_cfg.c **** 	CY_SET_XTND_REG8((void CYFAR *)(CYREG_CLKDIST_DCFG2_CFG0 + 0x2u), 0x18u);
 225              		.loc 1 241 0
 226 0016 0231     		adds	r1, r1, #2
 227 0018 0A80     		strh	r2, [r1]	@ movhi
 242:Generated_Source\PSoC5/cyfitter_cfg.c **** 	CY_SET_XTND_REG16((void CYFAR *)(CYREG_CLKDIST_DCFG3_CFG0), 0x00EFu);
 228              		.loc 1 242 0
 229 001a 0231     		adds	r1, r1, #2
 230 001c 0B70     		strb	r3, [r1]
 243:Generated_Source\PSoC5/cyfitter_cfg.c **** 	CY_SET_XTND_REG8((void CYFAR *)(CYREG_CLKDIST_DCFG3_CFG0 + 0x2u), 0x18u);
 231              		.loc 1 243 0
 232 001e 0231     		adds	r1, r1, #2
 233 0020 0A80     		strh	r2, [r1]	@ movhi
 244:Generated_Source\PSoC5/cyfitter_cfg.c **** 	CY_SET_XTND_REG16((void CYFAR *)(CYREG_CLKDIST_DCFG4_CFG0), 0x03E7u);
 234              		.loc 1 244 0
 235 0022 284A     		ldr	r2, .L20+8
 236 0024 1370     		strb	r3, [r2]
 245:Generated_Source\PSoC5/cyfitter_cfg.c **** 	CY_SET_XTND_REG8((void CYFAR *)(CYREG_CLKDIST_DCFG4_CFG0 + 0x2u), 0x1Bu);
 237              		.loc 1 245 0
 238 0026 40F2E732 		movw	r2, #999
 239 002a 274B     		ldr	r3, .L20+12
 240 002c 1A80     		strh	r2, [r3]	@ movhi
 246:Generated_Source\PSoC5/cyfitter_cfg.c **** 
 241              		.loc 1 246 0
 242 002e 1B22     		movs	r2, #27
 243 0030 0233     		adds	r3, r3, #2
ARM GAS  C:\Users\CLUBRO~1\AppData\Local\Temp\ccKe4Mdk.s 			page 11


 244 0032 1A70     		strb	r2, [r3]
 249:Generated_Source\PSoC5/cyfitter_cfg.c **** 	CY_SET_XTND_REG8((void CYFAR *)(CYREG_CLKDIST_CR), 0x08u);
 245              		.loc 1 249 0
 246 0034 0222     		movs	r2, #2
 247 0036 03F26E23 		addw	r3, r3, #622
 248 003a 1A70     		strb	r2, [r3]
 250:Generated_Source\PSoC5/cyfitter_cfg.c **** 
 249              		.loc 1 250 0
 250 003c 0822     		movs	r2, #8
 251 003e 4FF04023 		mov	r3, #1073758208
 252 0042 1A70     		strb	r2, [r3]
 253:Generated_Source\PSoC5/cyfitter_cfg.c **** 	CY_SET_XTND_REG8((void CYFAR *)(CYREG_IMO_TR1), (CY_GET_XTND_REG8((void CYFAR *)CYREG_FLSHID_CUST_
 253              		.loc 1 253 0
 254 0044 0321     		movs	r1, #3
 255 0046 03F50073 		add	r3, r3, #512
 256 004a 1970     		strb	r1, [r3]
 254:Generated_Source\PSoC5/cyfitter_cfg.c **** 
 257              		.loc 1 254 0
 258 004c 1F4B     		ldr	r3, .L20+16
 259 004e 1B78     		ldrb	r3, [r3]	@ zero_extendqisi2
 260 0050 DBB2     		uxtb	r3, r3
 261 0052 1F49     		ldr	r1, .L20+20
 262 0054 0B70     		strb	r3, [r1]
 257:Generated_Source\PSoC5/cyfitter_cfg.c **** 	CY_SET_XTND_REG16((void CYFAR *)(CYREG_FASTCLK_PLL_CFG0), 0x1251u);
 263              		.loc 1 257 0
 264 0056 1F4B     		ldr	r3, .L20+24
 265 0058 1A80     		strh	r2, [r3]	@ movhi
 258:Generated_Source\PSoC5/cyfitter_cfg.c **** 	/* Wait up to 250us for the PLL to lock */
 266              		.loc 1 258 0
 267 005a 41F25122 		movw	r2, #4689
 268 005e 023B     		subs	r3, r3, #2
 269 0060 1A80     		strh	r2, [r3]	@ movhi
 270              	.LVL17:
 260:Generated_Source\PSoC5/cyfitter_cfg.c **** 	for (timeout = 250u / 10u; (timeout > 0u) && (pllLock != 0x03u); timeout--)
 271              		.loc 1 260 0
 272 0062 0024     		movs	r4, #0
 261:Generated_Source\PSoC5/cyfitter_cfg.c **** 	{ 
 273              		.loc 1 261 0
 274 0064 1925     		movs	r5, #25
 275 0066 0CE0     		b	.L15
 276              	.LVL18:
 277              	.L17:
 263:Generated_Source\PSoC5/cyfitter_cfg.c **** 		CyDelayCycles(10u * 48u); /* Delay 10us based on 48MHz clock */
 278              		.loc 1 263 0 discriminator 4
 279 0068 1B4B     		ldr	r3, .L20+28
 280 006a 1B78     		ldrb	r3, [r3]	@ zero_extendqisi2
 281 006c 03F00103 		and	r3, r3, #1
 282 0070 43EA4404 		orr	r4, r3, r4, lsl #1
 283              	.LVL19:
 284 0074 04F00304 		and	r4, r4, #3
 285              	.LVL20:
 264:Generated_Source\PSoC5/cyfitter_cfg.c **** 	}
 286              		.loc 1 264 0 discriminator 4
 287 0078 4FF4F070 		mov	r0, #480
 288 007c FFF7FEFF 		bl	CyDelayCycles
 289              	.LVL21:
 261:Generated_Source\PSoC5/cyfitter_cfg.c **** 	{ 
ARM GAS  C:\Users\CLUBRO~1\AppData\Local\Temp\ccKe4Mdk.s 			page 12


 290              		.loc 1 261 0 discriminator 4
 291 0080 013D     		subs	r5, r5, #1
 292              	.LVL22:
 293              	.L15:
 261:Generated_Source\PSoC5/cyfitter_cfg.c **** 	{ 
 294              		.loc 1 261 0 is_stmt 0 discriminator 1
 295 0082 0DB1     		cbz	r5, .L16
 261:Generated_Source\PSoC5/cyfitter_cfg.c **** 	{ 
 296              		.loc 1 261 0 discriminator 3
 297 0084 032C     		cmp	r4, #3
 298 0086 EFD1     		bne	.L17
 299              	.L16:
 267:Generated_Source\PSoC5/cyfitter_cfg.c **** 	{
 300              		.loc 1 267 0 is_stmt 1
 301 0088 15B9     		cbnz	r5, .L18
 269:Generated_Source\PSoC5/cyfitter_cfg.c **** 	}
 302              		.loc 1 269 0
 303 008a 0320     		movs	r0, #3
 304 008c FFF7FEFF 		bl	CyClockStartupError
 305              	.LVL23:
 306              	.L18:
 273:Generated_Source\PSoC5/cyfitter_cfg.c **** 	CY_SET_XTND_REG8((void CYFAR *)(CYREG_CLKDIST_MSTR0), 0x07u);
 307              		.loc 1 273 0
 308 0090 124B     		ldr	r3, .L20+32
 309 0092 4FF48072 		mov	r2, #256
 310 0096 1A80     		strh	r2, [r3]	@ movhi
 274:Generated_Source\PSoC5/cyfitter_cfg.c **** 	CY_SET_XTND_REG8((void CYFAR *)(CYREG_CLKDIST_BCFG0), 0x00u);
 311              		.loc 1 274 0
 312 0098 0722     		movs	r2, #7
 313 009a 1A70     		strb	r2, [r3]
 275:Generated_Source\PSoC5/cyfitter_cfg.c **** 	CY_SET_XTND_REG8((void CYFAR *)(CYREG_CLKDIST_BCFG2), 0x48u);
 314              		.loc 1 275 0
 315 009c 0022     		movs	r2, #0
 316 009e 1049     		ldr	r1, .L20+36
 317 00a0 0A70     		strb	r2, [r1]
 276:Generated_Source\PSoC5/cyfitter_cfg.c **** 	CY_SET_XTND_REG8((void CYFAR *)(CYREG_CLKDIST_MSTR0), 0x00u);
 318              		.loc 1 276 0
 319 00a2 4820     		movs	r0, #72
 320 00a4 0231     		adds	r1, r1, #2
 321 00a6 0870     		strb	r0, [r1]
 277:Generated_Source\PSoC5/cyfitter_cfg.c **** 	CY_SET_XTND_REG8((void CYFAR *)(CYREG_CLKDIST_LD), 0x02u);
 322              		.loc 1 277 0
 323 00a8 1A70     		strb	r2, [r3]
 278:Generated_Source\PSoC5/cyfitter_cfg.c **** 
 324              		.loc 1 278 0
 325 00aa 0222     		movs	r2, #2
 326 00ac 033B     		subs	r3, r3, #3
 327 00ae 1A70     		strb	r2, [r3]
 280:Generated_Source\PSoC5/cyfitter_cfg.c **** }
 328              		.loc 1 280 0
 329 00b0 0C4A     		ldr	r2, .L20+40
 330 00b2 1378     		ldrb	r3, [r2]	@ zero_extendqisi2
 331 00b4 43F01F03 		orr	r3, r3, #31
 332 00b8 1370     		strb	r3, [r2]
 333 00ba 38BD     		pop	{r3, r4, r5, pc}
 334              	.LVL24:
 335              	.L21:
ARM GAS  C:\Users\CLUBRO~1\AppData\Local\Temp\ccKe4Mdk.s 			page 13


 336              		.align	2
 337              	.L20:
 338 00bc 80400040 		.word	1073758336
 339 00c0 82400040 		.word	1073758338
 340 00c4 8E400040 		.word	1073758350
 341 00c8 90400040 		.word	1073758352
 342 00cc 08010049 		.word	1224737032
 343 00d0 A1460040 		.word	1073759905
 344 00d4 22420040 		.word	1073758754
 345 00d8 25420040 		.word	1073758757
 346 00dc 04400040 		.word	1073758212
 347 00e0 06400040 		.word	1073758214
 348 00e4 A2430040 		.word	1073759138
 349              		.cfi_endproc
 350              	.LFE5:
 351              		.size	ClockSetup, .-ClockSetup
 352              		.section	.text.CYCONFIGCPY,"ax",%progbits
 353              		.align	2
 354              		.thumb
 355              		.thumb_func
 356              		.type	CYCONFIGCPY, %function
 357              	CYCONFIGCPY:
 358              	.LFB1:
  85:Generated_Source\PSoC5/cyfitter_cfg.c **** 	(void)memcpy(dest, src, n);
 359              		.loc 1 85 0
 360              		.cfi_startproc
 361              		@ args = 0, pretend = 0, frame = 0
 362              		@ frame_needed = 0, uses_anonymous_args = 0
 363              	.LVL25:
 364 0000 08B5     		push	{r3, lr}
 365              		.cfi_def_cfa_offset 8
 366              		.cfi_offset 3, -8
 367              		.cfi_offset 14, -4
  86:Generated_Source\PSoC5/cyfitter_cfg.c **** }
 368              		.loc 1 86 0
 369 0002 FFF7FEFF 		bl	memcpy
 370              	.LVL26:
 371 0006 08BD     		pop	{r3, pc}
 372              		.cfi_endproc
 373              	.LFE1:
 374              		.size	CYCONFIGCPY, .-CYCONFIGCPY
 375              		.section	.text.SetAnalogRoutingPumps,"ax",%progbits
 376              		.align	2
 377              		.global	SetAnalogRoutingPumps
 378              		.thumb
 379              		.thumb_func
 380              		.type	SetAnalogRoutingPumps, %function
 381              	SetAnalogRoutingPumps:
 382              	.LFB7:
 312:Generated_Source\PSoC5/cyfitter_cfg.c **** }
 313:Generated_Source\PSoC5/cyfitter_cfg.c **** 
 314:Generated_Source\PSoC5/cyfitter_cfg.c **** 
 315:Generated_Source\PSoC5/cyfitter_cfg.c **** /*******************************************************************************
 316:Generated_Source\PSoC5/cyfitter_cfg.c **** * Function Name: SetAnalogRoutingPumps
 317:Generated_Source\PSoC5/cyfitter_cfg.c **** ********************************************************************************
 318:Generated_Source\PSoC5/cyfitter_cfg.c **** *
 319:Generated_Source\PSoC5/cyfitter_cfg.c **** * Summary:
ARM GAS  C:\Users\CLUBRO~1\AppData\Local\Temp\ccKe4Mdk.s 			page 14


 320:Generated_Source\PSoC5/cyfitter_cfg.c **** * Enables or disables the analog pumps feeding analog routing switches.
 321:Generated_Source\PSoC5/cyfitter_cfg.c **** * Intended to be called at startup, based on the Vdda system configuration;
 322:Generated_Source\PSoC5/cyfitter_cfg.c **** * may be called during operation when the user informs us that the Vdda voltage
 323:Generated_Source\PSoC5/cyfitter_cfg.c **** * crossed the pump threshold.
 324:Generated_Source\PSoC5/cyfitter_cfg.c **** *
 325:Generated_Source\PSoC5/cyfitter_cfg.c **** * Parameters:
 326:Generated_Source\PSoC5/cyfitter_cfg.c **** *  enabled - 1 to enable the pumps, 0 to disable the pumps
 327:Generated_Source\PSoC5/cyfitter_cfg.c **** *
 328:Generated_Source\PSoC5/cyfitter_cfg.c **** * Return:
 329:Generated_Source\PSoC5/cyfitter_cfg.c **** *  void
 330:Generated_Source\PSoC5/cyfitter_cfg.c **** *
 331:Generated_Source\PSoC5/cyfitter_cfg.c **** *******************************************************************************/
 332:Generated_Source\PSoC5/cyfitter_cfg.c **** void SetAnalogRoutingPumps(uint8 enabled)
 333:Generated_Source\PSoC5/cyfitter_cfg.c **** {
 383              		.loc 1 333 0
 384              		.cfi_startproc
 385              		@ args = 0, pretend = 0, frame = 0
 386              		@ frame_needed = 0, uses_anonymous_args = 0
 387              		@ link register save eliminated.
 388              	.LVL27:
 334:Generated_Source\PSoC5/cyfitter_cfg.c **** 	uint8 regValue = CY_GET_XTND_REG8((void CYFAR *)CYREG_PUMP_CR0);
 389              		.loc 1 334 0
 390 0000 054B     		ldr	r3, .L27
 391 0002 1B78     		ldrb	r3, [r3]	@ zero_extendqisi2
 392 0004 DBB2     		uxtb	r3, r3
 393              	.LVL28:
 335:Generated_Source\PSoC5/cyfitter_cfg.c **** 	if (enabled != 0u)
 394              		.loc 1 335 0
 395 0006 10B1     		cbz	r0, .L25
 336:Generated_Source\PSoC5/cyfitter_cfg.c **** 	{
 337:Generated_Source\PSoC5/cyfitter_cfg.c **** 		regValue |= 0x22u;
 396              		.loc 1 337 0
 397 0008 43F02203 		orr	r3, r3, #34
 398              	.LVL29:
 399 000c 01E0     		b	.L26
 400              	.L25:
 338:Generated_Source\PSoC5/cyfitter_cfg.c **** 	}
 339:Generated_Source\PSoC5/cyfitter_cfg.c **** 	else
 340:Generated_Source\PSoC5/cyfitter_cfg.c **** 	{
 341:Generated_Source\PSoC5/cyfitter_cfg.c **** 		regValue &= (uint8)~0x22u;
 401              		.loc 1 341 0
 402 000e 03F0DD03 		and	r3, r3, #221
 403              	.LVL30:
 404              	.L26:
 342:Generated_Source\PSoC5/cyfitter_cfg.c **** 	}
 343:Generated_Source\PSoC5/cyfitter_cfg.c **** 	CY_SET_XTND_REG8((void CYFAR *)CYREG_PUMP_CR0, regValue);
 405              		.loc 1 343 0
 406 0012 014A     		ldr	r2, .L27
 407 0014 1370     		strb	r3, [r2]
 408 0016 7047     		bx	lr
 409              	.L28:
 410              		.align	2
 411              	.L27:
 412 0018 76580040 		.word	1073764470
 413              		.cfi_endproc
 414              	.LFE7:
 415              		.size	SetAnalogRoutingPumps, .-SetAnalogRoutingPumps
ARM GAS  C:\Users\CLUBRO~1\AppData\Local\Temp\ccKe4Mdk.s 			page 15


 416              		.section	.text.AMux_1_Set,"ax",%progbits
 417              		.align	2
 418              		.global	AMux_1_Set
 419              		.thumb
 420              		.thumb_func
 421              		.type	AMux_1_Set, %function
 422              	AMux_1_Set:
 423              	.LFB8:
 344:Generated_Source\PSoC5/cyfitter_cfg.c **** }
 345:Generated_Source\PSoC5/cyfitter_cfg.c **** 
 346:Generated_Source\PSoC5/cyfitter_cfg.c **** 
 347:Generated_Source\PSoC5/cyfitter_cfg.c **** #define CY_AMUX_UNUSED CYREG_BOOST_SR
 348:Generated_Source\PSoC5/cyfitter_cfg.c **** static uint8 CYXDATA * const CYCODE AMux_1__outerAddr[4] = {
 349:Generated_Source\PSoC5/cyfitter_cfg.c **** 	(uint8 CYXDATA *)CYREG_DAC3_SW0, 
 350:Generated_Source\PSoC5/cyfitter_cfg.c **** 	(uint8 CYXDATA *)CYREG_DAC0_SW0, 
 351:Generated_Source\PSoC5/cyfitter_cfg.c **** 	(uint8 CYXDATA *)CYREG_DAC1_SW0, 
 352:Generated_Source\PSoC5/cyfitter_cfg.c **** 	(uint8 CYXDATA *)CYREG_DAC2_SW0, 
 353:Generated_Source\PSoC5/cyfitter_cfg.c **** };
 354:Generated_Source\PSoC5/cyfitter_cfg.c **** 
 355:Generated_Source\PSoC5/cyfitter_cfg.c **** static const uint8 CYCODE AMux_1__outerMask[4] = {
 356:Generated_Source\PSoC5/cyfitter_cfg.c **** 	0x20u, 
 357:Generated_Source\PSoC5/cyfitter_cfg.c **** 	0x02u, 
 358:Generated_Source\PSoC5/cyfitter_cfg.c **** 	0x02u, 
 359:Generated_Source\PSoC5/cyfitter_cfg.c **** 	0x20u, 
 360:Generated_Source\PSoC5/cyfitter_cfg.c **** };
 361:Generated_Source\PSoC5/cyfitter_cfg.c **** 
 362:Generated_Source\PSoC5/cyfitter_cfg.c **** static uint8 CYXDATA * const CYCODE AMux_1__innerAddr[1] = {
 363:Generated_Source\PSoC5/cyfitter_cfg.c **** 	(uint8 CYXDATA *)CYREG_PRT1_AG, 
 364:Generated_Source\PSoC5/cyfitter_cfg.c **** };
 365:Generated_Source\PSoC5/cyfitter_cfg.c **** 
 366:Generated_Source\PSoC5/cyfitter_cfg.c **** static const uint8 CYCODE AMux_1__innerMask[1] = {
 367:Generated_Source\PSoC5/cyfitter_cfg.c **** 	0x40u, 
 368:Generated_Source\PSoC5/cyfitter_cfg.c **** };
 369:Generated_Source\PSoC5/cyfitter_cfg.c **** 
 370:Generated_Source\PSoC5/cyfitter_cfg.c **** static const uint8 CYCODE AMux_1__innerMap[4] = {
 371:Generated_Source\PSoC5/cyfitter_cfg.c **** 	0u, 
 372:Generated_Source\PSoC5/cyfitter_cfg.c **** 	0u, 
 373:Generated_Source\PSoC5/cyfitter_cfg.c **** 	0u, 
 374:Generated_Source\PSoC5/cyfitter_cfg.c **** 	0u, 
 375:Generated_Source\PSoC5/cyfitter_cfg.c **** };
 376:Generated_Source\PSoC5/cyfitter_cfg.c **** 
 377:Generated_Source\PSoC5/cyfitter_cfg.c **** static uint8 AMux_1__armsEnabled = 0u;
 378:Generated_Source\PSoC5/cyfitter_cfg.c **** static uint8 AMux_1__refCnt[] = {0u};
 379:Generated_Source\PSoC5/cyfitter_cfg.c **** 
 380:Generated_Source\PSoC5/cyfitter_cfg.c **** /*******************************************************************************
 381:Generated_Source\PSoC5/cyfitter_cfg.c **** * Function Name: AMux_1_Set
 382:Generated_Source\PSoC5/cyfitter_cfg.c **** ********************************************************************************
 383:Generated_Source\PSoC5/cyfitter_cfg.c **** * Summary:
 384:Generated_Source\PSoC5/cyfitter_cfg.c **** *  This function is used to set a particular channel as active on the AMux.
 385:Generated_Source\PSoC5/cyfitter_cfg.c **** *
 386:Generated_Source\PSoC5/cyfitter_cfg.c **** * Parameters:  
 387:Generated_Source\PSoC5/cyfitter_cfg.c **** *   channel - The mux channel input to set as active
 388:Generated_Source\PSoC5/cyfitter_cfg.c **** *
 389:Generated_Source\PSoC5/cyfitter_cfg.c **** * Return:
 390:Generated_Source\PSoC5/cyfitter_cfg.c **** *   void
 391:Generated_Source\PSoC5/cyfitter_cfg.c **** *
 392:Generated_Source\PSoC5/cyfitter_cfg.c **** *******************************************************************************/
ARM GAS  C:\Users\CLUBRO~1\AppData\Local\Temp\ccKe4Mdk.s 			page 16


 393:Generated_Source\PSoC5/cyfitter_cfg.c **** void AMux_1_Set(uint8 channel)
 394:Generated_Source\PSoC5/cyfitter_cfg.c **** {
 424              		.loc 1 394 0
 425              		.cfi_startproc
 426              		@ args = 0, pretend = 0, frame = 0
 427              		@ frame_needed = 0, uses_anonymous_args = 0
 428              		@ link register save eliminated.
 429              	.LVL31:
 395:Generated_Source\PSoC5/cyfitter_cfg.c **** 	uint8 i;
 396:Generated_Source\PSoC5/cyfitter_cfg.c **** 	uint8 channelMask = (1UL << channel);
 430              		.loc 1 396 0
 431 0000 0123     		movs	r3, #1
 432 0002 8340     		lsls	r3, r3, r0
 433              	.LVL32:
 397:Generated_Source\PSoC5/cyfitter_cfg.c **** 	if ((channel < 4u) && ((AMux_1__armsEnabled & channelMask) == ((uint32)0u)))
 434              		.loc 1 397 0
 435 0004 0328     		cmp	r0, #3
 436 0006 1FD8     		bhi	.L34
 437 0008 DBB2     		uxtb	r3, r3
 438              		.loc 1 397 0 is_stmt 0 discriminator 1
 439 000a 104A     		ldr	r2, .L35
 440 000c 1278     		ldrb	r2, [r2]	@ zero_extendqisi2
 441 000e 1342     		tst	r3, r2
 442 0010 1AD1     		bne	.L34
 394:Generated_Source\PSoC5/cyfitter_cfg.c **** 	uint8 i;
 443              		.loc 1 394 0 is_stmt 1
 444 0012 10B4     		push	{r4}
 445              		.cfi_def_cfa_offset 4
 446              		.cfi_offset 4, -4
 398:Generated_Source\PSoC5/cyfitter_cfg.c **** 	{
 399:Generated_Source\PSoC5/cyfitter_cfg.c **** 		AMux_1__armsEnabled |= channelMask;
 447              		.loc 1 399 0
 448 0014 0D49     		ldr	r1, .L35
 449 0016 1343     		orrs	r3, r3, r2
 450              	.LVL33:
 451 0018 0B70     		strb	r3, [r1]
 400:Generated_Source\PSoC5/cyfitter_cfg.c **** 		*AMux_1__outerAddr[channel] |= AMux_1__outerMask[channel];
 452              		.loc 1 400 0
 453 001a 0D4B     		ldr	r3, .L35+4
 454 001c 53F82020 		ldr	r2, [r3, r0, lsl #2]
 455 0020 1844     		add	r0, r0, r3
 456              	.LVL34:
 457 0022 047C     		ldrb	r4, [r0, #16]	@ zero_extendqisi2
 458 0024 1378     		ldrb	r3, [r2]	@ zero_extendqisi2
 459 0026 2343     		orrs	r3, r3, r4
 460 0028 1370     		strb	r3, [r2]
 401:Generated_Source\PSoC5/cyfitter_cfg.c **** 		i = AMux_1__innerMap[channel];
 461              		.loc 1 401 0
 462 002a 037D     		ldrb	r3, [r0, #20]	@ zero_extendqisi2
 402:Generated_Source\PSoC5/cyfitter_cfg.c **** 		if (AMux_1__refCnt[i] == 0u)
 463              		.loc 1 402 0
 464 002c 1944     		add	r1, r1, r3
 465 002e 0A79     		ldrb	r2, [r1, #4]	@ zero_extendqisi2
 466 0030 22B9     		cbnz	r2, .L31
 403:Generated_Source\PSoC5/cyfitter_cfg.c **** 		{
 404:Generated_Source\PSoC5/cyfitter_cfg.c **** 			*AMux_1__innerAddr[i] |= AMux_1__innerMask[i];
 467              		.loc 1 404 0
ARM GAS  C:\Users\CLUBRO~1\AppData\Local\Temp\ccKe4Mdk.s 			page 17


 468 0032 0849     		ldr	r1, .L35+8
 469 0034 0A78     		ldrb	r2, [r1]	@ zero_extendqisi2
 470 0036 42F04002 		orr	r2, r2, #64
 471 003a 0A70     		strb	r2, [r1]
 472              	.L31:
 405:Generated_Source\PSoC5/cyfitter_cfg.c **** 		}
 406:Generated_Source\PSoC5/cyfitter_cfg.c **** 		AMux_1__refCnt[i]++;
 473              		.loc 1 406 0
 474 003c 034A     		ldr	r2, .L35
 475 003e 1344     		add	r3, r3, r2
 476 0040 1A79     		ldrb	r2, [r3, #4]	@ zero_extendqisi2
 477 0042 0132     		adds	r2, r2, #1
 478 0044 1A71     		strb	r2, [r3, #4]
 407:Generated_Source\PSoC5/cyfitter_cfg.c **** 	}
 408:Generated_Source\PSoC5/cyfitter_cfg.c **** }
 479              		.loc 1 408 0
 480 0046 10BC     		pop	{r4}
 481              		.cfi_restore 4
 482              		.cfi_def_cfa_offset 0
 483              	.LVL35:
 484              	.L34:
 485 0048 7047     		bx	lr
 486              	.L36:
 487 004a 00BF     		.align	2
 488              	.L35:
 489 004c 00000000 		.word	.LANCHOR0
 490 0050 00000000 		.word	.LANCHOR1
 491 0054 1D510040 		.word	1073762589
 492              		.cfi_endproc
 493              	.LFE8:
 494              		.size	AMux_1_Set, .-AMux_1_Set
 495              		.section	.text.AMux_1_Unset,"ax",%progbits
 496              		.align	2
 497              		.global	AMux_1_Unset
 498              		.thumb
 499              		.thumb_func
 500              		.type	AMux_1_Unset, %function
 501              	AMux_1_Unset:
 502              	.LFB9:
 409:Generated_Source\PSoC5/cyfitter_cfg.c **** 
 410:Generated_Source\PSoC5/cyfitter_cfg.c **** /*******************************************************************************
 411:Generated_Source\PSoC5/cyfitter_cfg.c **** * Function Name: AMux_1_Unset
 412:Generated_Source\PSoC5/cyfitter_cfg.c **** ********************************************************************************
 413:Generated_Source\PSoC5/cyfitter_cfg.c **** * Summary:
 414:Generated_Source\PSoC5/cyfitter_cfg.c **** *  This function is used to clear a particular channel from being active on the
 415:Generated_Source\PSoC5/cyfitter_cfg.c **** *  AMux.
 416:Generated_Source\PSoC5/cyfitter_cfg.c **** *
 417:Generated_Source\PSoC5/cyfitter_cfg.c **** * Parameters:  
 418:Generated_Source\PSoC5/cyfitter_cfg.c **** *   channel - The mux channel input to mark inactive
 419:Generated_Source\PSoC5/cyfitter_cfg.c **** *
 420:Generated_Source\PSoC5/cyfitter_cfg.c **** * Return:
 421:Generated_Source\PSoC5/cyfitter_cfg.c **** *   void
 422:Generated_Source\PSoC5/cyfitter_cfg.c **** *
 423:Generated_Source\PSoC5/cyfitter_cfg.c **** *******************************************************************************/
 424:Generated_Source\PSoC5/cyfitter_cfg.c **** void AMux_1_Unset(uint8 channel)
 425:Generated_Source\PSoC5/cyfitter_cfg.c **** {
 503              		.loc 1 425 0
ARM GAS  C:\Users\CLUBRO~1\AppData\Local\Temp\ccKe4Mdk.s 			page 18


 504              		.cfi_startproc
 505              		@ args = 0, pretend = 0, frame = 0
 506              		@ frame_needed = 0, uses_anonymous_args = 0
 507              		@ link register save eliminated.
 508              	.LVL36:
 426:Generated_Source\PSoC5/cyfitter_cfg.c **** 	uint8 i;
 427:Generated_Source\PSoC5/cyfitter_cfg.c **** 	uint8 channelMask = (1UL << channel);
 509              		.loc 1 427 0
 510 0000 0123     		movs	r3, #1
 511 0002 8340     		lsls	r3, r3, r0
 512              	.LVL37:
 428:Generated_Source\PSoC5/cyfitter_cfg.c **** 	if ((channel < 4u) && ((AMux_1__armsEnabled & channelMask) != ((uint32)0u)))
 513              		.loc 1 428 0
 514 0004 0328     		cmp	r0, #3
 515 0006 1FD8     		bhi	.L41
 516 0008 DBB2     		uxtb	r3, r3
 517              		.loc 1 428 0 is_stmt 0 discriminator 1
 518 000a 104A     		ldr	r2, .L42
 519 000c 1278     		ldrb	r2, [r2]	@ zero_extendqisi2
 520 000e 1342     		tst	r3, r2
 521 0010 1AD0     		beq	.L41
 425:Generated_Source\PSoC5/cyfitter_cfg.c **** 	uint8 i;
 522              		.loc 1 425 0 is_stmt 1
 523 0012 10B4     		push	{r4}
 524              		.cfi_def_cfa_offset 4
 525              		.cfi_offset 4, -4
 429:Generated_Source\PSoC5/cyfitter_cfg.c **** 	{
 430:Generated_Source\PSoC5/cyfitter_cfg.c **** 		AMux_1__armsEnabled &= (uint8)~channelMask;
 526              		.loc 1 430 0
 527 0014 0D49     		ldr	r1, .L42
 528 0016 22EA0303 		bic	r3, r2, r3
 529              	.LVL38:
 530 001a 0B70     		strb	r3, [r1]
 431:Generated_Source\PSoC5/cyfitter_cfg.c **** 		*AMux_1__outerAddr[channel] &= (uint8)~AMux_1__outerMask[channel];
 531              		.loc 1 431 0
 532 001c 0C4B     		ldr	r3, .L42+4
 533 001e 53F82020 		ldr	r2, [r3, r0, lsl #2]
 534 0022 1844     		add	r0, r0, r3
 535              	.LVL39:
 536 0024 047C     		ldrb	r4, [r0, #16]	@ zero_extendqisi2
 537 0026 1378     		ldrb	r3, [r2]	@ zero_extendqisi2
 538 0028 23EA0403 		bic	r3, r3, r4
 539 002c 1370     		strb	r3, [r2]
 432:Generated_Source\PSoC5/cyfitter_cfg.c **** 		i = AMux_1__innerMap[channel];
 540              		.loc 1 432 0
 541 002e 037D     		ldrb	r3, [r0, #20]	@ zero_extendqisi2
 542              	.LVL40:
 433:Generated_Source\PSoC5/cyfitter_cfg.c **** 		AMux_1__refCnt[i]--;
 543              		.loc 1 433 0
 544 0030 CA18     		adds	r2, r1, r3
 545 0032 1379     		ldrb	r3, [r2, #4]	@ zero_extendqisi2
 546              	.LVL41:
 547 0034 013B     		subs	r3, r3, #1
 548 0036 DBB2     		uxtb	r3, r3
 549 0038 1371     		strb	r3, [r2, #4]
 434:Generated_Source\PSoC5/cyfitter_cfg.c **** 		if (AMux_1__refCnt[i] == 0)
 550              		.loc 1 434 0
ARM GAS  C:\Users\CLUBRO~1\AppData\Local\Temp\ccKe4Mdk.s 			page 19


 551 003a 23B9     		cbnz	r3, .L37
 435:Generated_Source\PSoC5/cyfitter_cfg.c **** 		{
 436:Generated_Source\PSoC5/cyfitter_cfg.c **** 			*AMux_1__innerAddr[i] &= (uint8)~AMux_1__innerMask[i];
 552              		.loc 1 436 0
 553 003c 054A     		ldr	r2, .L42+8
 554 003e 1378     		ldrb	r3, [r2]	@ zero_extendqisi2
 555 0040 23F04003 		bic	r3, r3, #64
 556 0044 1370     		strb	r3, [r2]
 557              	.L37:
 437:Generated_Source\PSoC5/cyfitter_cfg.c **** 		}
 438:Generated_Source\PSoC5/cyfitter_cfg.c **** 	}
 439:Generated_Source\PSoC5/cyfitter_cfg.c **** }
 558              		.loc 1 439 0
 559 0046 10BC     		pop	{r4}
 560              		.cfi_restore 4
 561              		.cfi_def_cfa_offset 0
 562              	.LVL42:
 563              	.L41:
 564 0048 7047     		bx	lr
 565              	.L43:
 566 004a 00BF     		.align	2
 567              	.L42:
 568 004c 00000000 		.word	.LANCHOR0
 569 0050 00000000 		.word	.LANCHOR1
 570 0054 1D510040 		.word	1073762589
 571              		.cfi_endproc
 572              	.LFE9:
 573              		.size	AMux_1_Unset, .-AMux_1_Unset
 574              		.section	.text.AMux_2_Set,"ax",%progbits
 575              		.align	2
 576              		.global	AMux_2_Set
 577              		.thumb
 578              		.thumb_func
 579              		.type	AMux_2_Set, %function
 580              	AMux_2_Set:
 581              	.LFB10:
 440:Generated_Source\PSoC5/cyfitter_cfg.c **** 
 441:Generated_Source\PSoC5/cyfitter_cfg.c **** static uint8 CYXDATA * const CYCODE AMux_2__outerAddr[16] = {
 442:Generated_Source\PSoC5/cyfitter_cfg.c **** 	(uint8 CYXDATA *)CYREG_PRT3_AMUX, 
 443:Generated_Source\PSoC5/cyfitter_cfg.c **** 	(uint8 CYXDATA *)CYREG_PRT3_AMUX, 
 444:Generated_Source\PSoC5/cyfitter_cfg.c **** 	(uint8 CYXDATA *)CYREG_PRT3_AMUX, 
 445:Generated_Source\PSoC5/cyfitter_cfg.c **** 	(uint8 CYXDATA *)CYREG_PRT3_AMUX, 
 446:Generated_Source\PSoC5/cyfitter_cfg.c **** 	(uint8 CYXDATA *)CYREG_PRT3_AMUX, 
 447:Generated_Source\PSoC5/cyfitter_cfg.c **** 	(uint8 CYXDATA *)CYREG_PRT3_AMUX, 
 448:Generated_Source\PSoC5/cyfitter_cfg.c **** 	(uint8 CYXDATA *)CYREG_PRT3_AMUX, 
 449:Generated_Source\PSoC5/cyfitter_cfg.c **** 	(uint8 CYXDATA *)CYREG_PRT15_AMUX, 
 450:Generated_Source\PSoC5/cyfitter_cfg.c **** 	(uint8 CYXDATA *)CYREG_PRT15_AMUX, 
 451:Generated_Source\PSoC5/cyfitter_cfg.c **** 	(uint8 CYXDATA *)CYREG_PRT15_AMUX, 
 452:Generated_Source\PSoC5/cyfitter_cfg.c **** 	(uint8 CYXDATA *)CYREG_PRT15_AMUX, 
 453:Generated_Source\PSoC5/cyfitter_cfg.c **** 	(uint8 CYXDATA *)CYREG_PRT15_AMUX, 
 454:Generated_Source\PSoC5/cyfitter_cfg.c **** 	(uint8 CYXDATA *)CYREG_PRT15_AMUX, 
 455:Generated_Source\PSoC5/cyfitter_cfg.c **** 	(uint8 CYXDATA *)CYREG_PRT0_AMUX, 
 456:Generated_Source\PSoC5/cyfitter_cfg.c **** 	(uint8 CYXDATA *)CYREG_PRT0_AMUX, 
 457:Generated_Source\PSoC5/cyfitter_cfg.c **** 	(uint8 CYXDATA *)CYREG_PRT0_AMUX, 
 458:Generated_Source\PSoC5/cyfitter_cfg.c **** };
 459:Generated_Source\PSoC5/cyfitter_cfg.c **** 
 460:Generated_Source\PSoC5/cyfitter_cfg.c **** static const uint8 CYCODE AMux_2__outerMask[16] = {
ARM GAS  C:\Users\CLUBRO~1\AppData\Local\Temp\ccKe4Mdk.s 			page 20


 461:Generated_Source\PSoC5/cyfitter_cfg.c **** 	0x01u, 
 462:Generated_Source\PSoC5/cyfitter_cfg.c **** 	0x02u, 
 463:Generated_Source\PSoC5/cyfitter_cfg.c **** 	0x08u, 
 464:Generated_Source\PSoC5/cyfitter_cfg.c **** 	0x10u, 
 465:Generated_Source\PSoC5/cyfitter_cfg.c **** 	0x20u, 
 466:Generated_Source\PSoC5/cyfitter_cfg.c **** 	0x40u, 
 467:Generated_Source\PSoC5/cyfitter_cfg.c **** 	0x80u, 
 468:Generated_Source\PSoC5/cyfitter_cfg.c **** 	0x01u, 
 469:Generated_Source\PSoC5/cyfitter_cfg.c **** 	0x02u, 
 470:Generated_Source\PSoC5/cyfitter_cfg.c **** 	0x04u, 
 471:Generated_Source\PSoC5/cyfitter_cfg.c **** 	0x08u, 
 472:Generated_Source\PSoC5/cyfitter_cfg.c **** 	0x10u, 
 473:Generated_Source\PSoC5/cyfitter_cfg.c **** 	0x20u, 
 474:Generated_Source\PSoC5/cyfitter_cfg.c **** 	0x01u, 
 475:Generated_Source\PSoC5/cyfitter_cfg.c **** 	0x02u, 
 476:Generated_Source\PSoC5/cyfitter_cfg.c **** 	0x04u, 
 477:Generated_Source\PSoC5/cyfitter_cfg.c **** };
 478:Generated_Source\PSoC5/cyfitter_cfg.c **** 
 479:Generated_Source\PSoC5/cyfitter_cfg.c **** static uint8 CYXDATA * const CYCODE AMux_2__innerAddr[1] = {
 480:Generated_Source\PSoC5/cyfitter_cfg.c **** 	(uint8 CYXDATA *)CYREG_PRT1_AMUX, 
 481:Generated_Source\PSoC5/cyfitter_cfg.c **** };
 482:Generated_Source\PSoC5/cyfitter_cfg.c **** 
 483:Generated_Source\PSoC5/cyfitter_cfg.c **** static const uint8 CYCODE AMux_2__innerMask[1] = {
 484:Generated_Source\PSoC5/cyfitter_cfg.c **** 	0x80u, 
 485:Generated_Source\PSoC5/cyfitter_cfg.c **** };
 486:Generated_Source\PSoC5/cyfitter_cfg.c **** 
 487:Generated_Source\PSoC5/cyfitter_cfg.c **** static const uint8 CYCODE AMux_2__innerMap[16] = {
 488:Generated_Source\PSoC5/cyfitter_cfg.c **** 	0u, 
 489:Generated_Source\PSoC5/cyfitter_cfg.c **** 	0u, 
 490:Generated_Source\PSoC5/cyfitter_cfg.c **** 	0u, 
 491:Generated_Source\PSoC5/cyfitter_cfg.c **** 	0u, 
 492:Generated_Source\PSoC5/cyfitter_cfg.c **** 	0u, 
 493:Generated_Source\PSoC5/cyfitter_cfg.c **** 	0u, 
 494:Generated_Source\PSoC5/cyfitter_cfg.c **** 	0u, 
 495:Generated_Source\PSoC5/cyfitter_cfg.c **** 	0u, 
 496:Generated_Source\PSoC5/cyfitter_cfg.c **** 	0u, 
 497:Generated_Source\PSoC5/cyfitter_cfg.c **** 	0u, 
 498:Generated_Source\PSoC5/cyfitter_cfg.c **** 	0u, 
 499:Generated_Source\PSoC5/cyfitter_cfg.c **** 	0u, 
 500:Generated_Source\PSoC5/cyfitter_cfg.c **** 	0u, 
 501:Generated_Source\PSoC5/cyfitter_cfg.c **** 	0u, 
 502:Generated_Source\PSoC5/cyfitter_cfg.c **** 	0u, 
 503:Generated_Source\PSoC5/cyfitter_cfg.c **** 	0u, 
 504:Generated_Source\PSoC5/cyfitter_cfg.c **** };
 505:Generated_Source\PSoC5/cyfitter_cfg.c **** 
 506:Generated_Source\PSoC5/cyfitter_cfg.c **** static uint16 AMux_2__armsEnabled = 0u;
 507:Generated_Source\PSoC5/cyfitter_cfg.c **** static uint8 AMux_2__refCnt[] = {0u};
 508:Generated_Source\PSoC5/cyfitter_cfg.c **** 
 509:Generated_Source\PSoC5/cyfitter_cfg.c **** /*******************************************************************************
 510:Generated_Source\PSoC5/cyfitter_cfg.c **** * Function Name: AMux_2_Set
 511:Generated_Source\PSoC5/cyfitter_cfg.c **** ********************************************************************************
 512:Generated_Source\PSoC5/cyfitter_cfg.c **** * Summary:
 513:Generated_Source\PSoC5/cyfitter_cfg.c **** *  This function is used to set a particular channel as active on the AMux.
 514:Generated_Source\PSoC5/cyfitter_cfg.c **** *
 515:Generated_Source\PSoC5/cyfitter_cfg.c **** * Parameters:  
 516:Generated_Source\PSoC5/cyfitter_cfg.c **** *   channel - The mux channel input to set as active
 517:Generated_Source\PSoC5/cyfitter_cfg.c **** *
ARM GAS  C:\Users\CLUBRO~1\AppData\Local\Temp\ccKe4Mdk.s 			page 21


 518:Generated_Source\PSoC5/cyfitter_cfg.c **** * Return:
 519:Generated_Source\PSoC5/cyfitter_cfg.c **** *   void
 520:Generated_Source\PSoC5/cyfitter_cfg.c **** *
 521:Generated_Source\PSoC5/cyfitter_cfg.c **** *******************************************************************************/
 522:Generated_Source\PSoC5/cyfitter_cfg.c **** void AMux_2_Set(uint8 channel)
 523:Generated_Source\PSoC5/cyfitter_cfg.c **** {
 582              		.loc 1 523 0
 583              		.cfi_startproc
 584              		@ args = 0, pretend = 0, frame = 0
 585              		@ frame_needed = 0, uses_anonymous_args = 0
 586              		@ link register save eliminated.
 587              	.LVL43:
 524:Generated_Source\PSoC5/cyfitter_cfg.c **** 	uint8 i;
 525:Generated_Source\PSoC5/cyfitter_cfg.c **** 	uint16 channelMask = (1UL << channel);
 588              		.loc 1 525 0
 589 0000 0123     		movs	r3, #1
 590 0002 8340     		lsls	r3, r3, r0
 591              	.LVL44:
 526:Generated_Source\PSoC5/cyfitter_cfg.c **** 	if ((channel < 16u) && ((AMux_2__armsEnabled & channelMask) == ((uint32)0u)))
 592              		.loc 1 526 0
 593 0004 0F28     		cmp	r0, #15
 594 0006 22D8     		bhi	.L49
 595 0008 9BB2     		uxth	r3, r3
 596              		.loc 1 526 0 is_stmt 0 discriminator 1
 597 000a 114A     		ldr	r2, .L50
 598 000c D288     		ldrh	r2, [r2, #6]
 599 000e 1342     		tst	r3, r2
 600 0010 1DD1     		bne	.L49
 523:Generated_Source\PSoC5/cyfitter_cfg.c **** 	uint8 i;
 601              		.loc 1 523 0 is_stmt 1
 602 0012 10B4     		push	{r4}
 603              		.cfi_def_cfa_offset 4
 604              		.cfi_offset 4, -4
 527:Generated_Source\PSoC5/cyfitter_cfg.c **** 	{
 528:Generated_Source\PSoC5/cyfitter_cfg.c **** 		AMux_2__armsEnabled |= channelMask;
 605              		.loc 1 528 0
 606 0014 0E49     		ldr	r1, .L50
 607 0016 1343     		orrs	r3, r3, r2
 608              	.LVL45:
 609 0018 CB80     		strh	r3, [r1, #6]	@ movhi
 529:Generated_Source\PSoC5/cyfitter_cfg.c **** 		*AMux_2__outerAddr[channel] |= AMux_2__outerMask[channel];
 610              		.loc 1 529 0
 611 001a 0E4B     		ldr	r3, .L50+4
 612 001c 03EB8002 		add	r2, r3, r0, lsl #2
 613 0020 9269     		ldr	r2, [r2, #24]
 614 0022 1844     		add	r0, r0, r3
 615              	.LVL46:
 616 0024 90F85840 		ldrb	r4, [r0, #88]	@ zero_extendqisi2
 617 0028 1378     		ldrb	r3, [r2]	@ zero_extendqisi2
 618 002a 2343     		orrs	r3, r3, r4
 619 002c 1370     		strb	r3, [r2]
 530:Generated_Source\PSoC5/cyfitter_cfg.c **** 		i = AMux_2__innerMap[channel];
 620              		.loc 1 530 0
 621 002e 90F86830 		ldrb	r3, [r0, #104]	@ zero_extendqisi2
 531:Generated_Source\PSoC5/cyfitter_cfg.c **** 		if (AMux_2__refCnt[i] == 0u)
 622              		.loc 1 531 0
 623 0032 1944     		add	r1, r1, r3
ARM GAS  C:\Users\CLUBRO~1\AppData\Local\Temp\ccKe4Mdk.s 			page 22


 624 0034 0A7A     		ldrb	r2, [r1, #8]	@ zero_extendqisi2
 625 0036 22B9     		cbnz	r2, .L46
 532:Generated_Source\PSoC5/cyfitter_cfg.c **** 		{
 533:Generated_Source\PSoC5/cyfitter_cfg.c **** 			*AMux_2__innerAddr[i] |= AMux_2__innerMask[i];
 626              		.loc 1 533 0
 627 0038 0749     		ldr	r1, .L50+8
 628 003a 0A78     		ldrb	r2, [r1]	@ zero_extendqisi2
 629 003c 62F07F02 		orn	r2, r2, #127
 630 0040 0A70     		strb	r2, [r1]
 631              	.L46:
 534:Generated_Source\PSoC5/cyfitter_cfg.c **** 		}
 535:Generated_Source\PSoC5/cyfitter_cfg.c **** 		AMux_2__refCnt[i]++;
 632              		.loc 1 535 0
 633 0042 034A     		ldr	r2, .L50
 634 0044 1344     		add	r3, r3, r2
 635 0046 1A7A     		ldrb	r2, [r3, #8]	@ zero_extendqisi2
 636 0048 0132     		adds	r2, r2, #1
 637 004a 1A72     		strb	r2, [r3, #8]
 536:Generated_Source\PSoC5/cyfitter_cfg.c **** 	}
 537:Generated_Source\PSoC5/cyfitter_cfg.c **** }
 638              		.loc 1 537 0
 639 004c 10BC     		pop	{r4}
 640              		.cfi_restore 4
 641              		.cfi_def_cfa_offset 0
 642              	.LVL47:
 643              	.L49:
 644 004e 7047     		bx	lr
 645              	.L51:
 646              		.align	2
 647              	.L50:
 648 0050 00000000 		.word	.LANCHOR0
 649 0054 00000000 		.word	.LANCHOR1
 650 0058 1C510040 		.word	1073762588
 651              		.cfi_endproc
 652              	.LFE10:
 653              		.size	AMux_2_Set, .-AMux_2_Set
 654              		.section	.text.AMux_2_Unset,"ax",%progbits
 655              		.align	2
 656              		.global	AMux_2_Unset
 657              		.thumb
 658              		.thumb_func
 659              		.type	AMux_2_Unset, %function
 660              	AMux_2_Unset:
 661              	.LFB11:
 538:Generated_Source\PSoC5/cyfitter_cfg.c **** 
 539:Generated_Source\PSoC5/cyfitter_cfg.c **** /*******************************************************************************
 540:Generated_Source\PSoC5/cyfitter_cfg.c **** * Function Name: AMux_2_Unset
 541:Generated_Source\PSoC5/cyfitter_cfg.c **** ********************************************************************************
 542:Generated_Source\PSoC5/cyfitter_cfg.c **** * Summary:
 543:Generated_Source\PSoC5/cyfitter_cfg.c **** *  This function is used to clear a particular channel from being active on the
 544:Generated_Source\PSoC5/cyfitter_cfg.c **** *  AMux.
 545:Generated_Source\PSoC5/cyfitter_cfg.c **** *
 546:Generated_Source\PSoC5/cyfitter_cfg.c **** * Parameters:  
 547:Generated_Source\PSoC5/cyfitter_cfg.c **** *   channel - The mux channel input to mark inactive
 548:Generated_Source\PSoC5/cyfitter_cfg.c **** *
 549:Generated_Source\PSoC5/cyfitter_cfg.c **** * Return:
 550:Generated_Source\PSoC5/cyfitter_cfg.c **** *   void
ARM GAS  C:\Users\CLUBRO~1\AppData\Local\Temp\ccKe4Mdk.s 			page 23


 551:Generated_Source\PSoC5/cyfitter_cfg.c **** *
 552:Generated_Source\PSoC5/cyfitter_cfg.c **** *******************************************************************************/
 553:Generated_Source\PSoC5/cyfitter_cfg.c **** void AMux_2_Unset(uint8 channel)
 554:Generated_Source\PSoC5/cyfitter_cfg.c **** {
 662              		.loc 1 554 0
 663              		.cfi_startproc
 664              		@ args = 0, pretend = 0, frame = 0
 665              		@ frame_needed = 0, uses_anonymous_args = 0
 666              		@ link register save eliminated.
 667              	.LVL48:
 555:Generated_Source\PSoC5/cyfitter_cfg.c **** 	uint8 i;
 556:Generated_Source\PSoC5/cyfitter_cfg.c **** 	uint16 channelMask = (1UL << channel);
 668              		.loc 1 556 0
 669 0000 0123     		movs	r3, #1
 670 0002 8340     		lsls	r3, r3, r0
 671              	.LVL49:
 557:Generated_Source\PSoC5/cyfitter_cfg.c **** 	if ((channel < 16u) && ((AMux_2__armsEnabled & channelMask) != ((uint32)0u)))
 672              		.loc 1 557 0
 673 0004 0F28     		cmp	r0, #15
 674 0006 22D8     		bhi	.L56
 675 0008 9BB2     		uxth	r3, r3
 676              		.loc 1 557 0 is_stmt 0 discriminator 1
 677 000a 114A     		ldr	r2, .L57
 678 000c D288     		ldrh	r2, [r2, #6]
 679 000e 1342     		tst	r3, r2
 680 0010 1DD0     		beq	.L56
 554:Generated_Source\PSoC5/cyfitter_cfg.c **** 	uint8 i;
 681              		.loc 1 554 0 is_stmt 1
 682 0012 10B4     		push	{r4}
 683              		.cfi_def_cfa_offset 4
 684              		.cfi_offset 4, -4
 558:Generated_Source\PSoC5/cyfitter_cfg.c **** 	{
 559:Generated_Source\PSoC5/cyfitter_cfg.c **** 		AMux_2__armsEnabled &= (uint16)~channelMask;
 685              		.loc 1 559 0
 686 0014 0E49     		ldr	r1, .L57
 687 0016 22EA0303 		bic	r3, r2, r3
 688              	.LVL50:
 689 001a CB80     		strh	r3, [r1, #6]	@ movhi
 560:Generated_Source\PSoC5/cyfitter_cfg.c **** 		*AMux_2__outerAddr[channel] &= (uint8)~AMux_2__outerMask[channel];
 690              		.loc 1 560 0
 691 001c 0D4B     		ldr	r3, .L57+4
 692 001e 03EB8002 		add	r2, r3, r0, lsl #2
 693 0022 9269     		ldr	r2, [r2, #24]
 694 0024 1844     		add	r0, r0, r3
 695              	.LVL51:
 696 0026 90F85840 		ldrb	r4, [r0, #88]	@ zero_extendqisi2
 697 002a 1378     		ldrb	r3, [r2]	@ zero_extendqisi2
 698 002c 23EA0403 		bic	r3, r3, r4
 699 0030 1370     		strb	r3, [r2]
 561:Generated_Source\PSoC5/cyfitter_cfg.c **** 		i = AMux_2__innerMap[channel];
 700              		.loc 1 561 0
 701 0032 90F86830 		ldrb	r3, [r0, #104]	@ zero_extendqisi2
 702              	.LVL52:
 562:Generated_Source\PSoC5/cyfitter_cfg.c **** 		AMux_2__refCnt[i]--;
 703              		.loc 1 562 0
 704 0036 CA18     		adds	r2, r1, r3
 705 0038 137A     		ldrb	r3, [r2, #8]	@ zero_extendqisi2
ARM GAS  C:\Users\CLUBRO~1\AppData\Local\Temp\ccKe4Mdk.s 			page 24


 706              	.LVL53:
 707 003a 013B     		subs	r3, r3, #1
 708 003c DBB2     		uxtb	r3, r3
 709 003e 1372     		strb	r3, [r2, #8]
 563:Generated_Source\PSoC5/cyfitter_cfg.c **** 		if (AMux_2__refCnt[i] == 0)
 710              		.loc 1 563 0
 711 0040 23B9     		cbnz	r3, .L52
 564:Generated_Source\PSoC5/cyfitter_cfg.c **** 		{
 565:Generated_Source\PSoC5/cyfitter_cfg.c **** 			*AMux_2__innerAddr[i] &= (uint8)~AMux_2__innerMask[i];
 712              		.loc 1 565 0
 713 0042 054A     		ldr	r2, .L57+8
 714 0044 1378     		ldrb	r3, [r2]	@ zero_extendqisi2
 715 0046 03F07F03 		and	r3, r3, #127
 716 004a 1370     		strb	r3, [r2]
 717              	.L52:
 566:Generated_Source\PSoC5/cyfitter_cfg.c **** 		}
 567:Generated_Source\PSoC5/cyfitter_cfg.c **** 	}
 568:Generated_Source\PSoC5/cyfitter_cfg.c **** }
 718              		.loc 1 568 0
 719 004c 10BC     		pop	{r4}
 720              		.cfi_restore 4
 721              		.cfi_def_cfa_offset 0
 722              	.LVL54:
 723              	.L56:
 724 004e 7047     		bx	lr
 725              	.L58:
 726              		.align	2
 727              	.L57:
 728 0050 00000000 		.word	.LANCHOR0
 729 0054 00000000 		.word	.LANCHOR1
 730 0058 1C510040 		.word	1073762588
 731              		.cfi_endproc
 732              	.LFE11:
 733              		.size	AMux_2_Unset, .-AMux_2_Unset
 734              		.section	.text.cyfitter_cfg,"ax",%progbits
 735              		.align	2
 736              		.global	cyfitter_cfg
 737              		.thumb
 738              		.thumb_func
 739              		.type	cyfitter_cfg, %function
 740              	cyfitter_cfg:
 741              	.LFB12:
 569:Generated_Source\PSoC5/cyfitter_cfg.c **** 
 570:Generated_Source\PSoC5/cyfitter_cfg.c **** 
 571:Generated_Source\PSoC5/cyfitter_cfg.c **** 
 572:Generated_Source\PSoC5/cyfitter_cfg.c **** /*******************************************************************************
 573:Generated_Source\PSoC5/cyfitter_cfg.c **** * Function Name: cyfitter_cfg
 574:Generated_Source\PSoC5/cyfitter_cfg.c **** ********************************************************************************
 575:Generated_Source\PSoC5/cyfitter_cfg.c **** * Summary:
 576:Generated_Source\PSoC5/cyfitter_cfg.c **** *  This function is called by the start-up code for the selected device. It
 577:Generated_Source\PSoC5/cyfitter_cfg.c **** *  performs all of the necessary device configuration based on the design
 578:Generated_Source\PSoC5/cyfitter_cfg.c **** *  settings.  This includes settings from the Design Wide Resources (DWR) such
 579:Generated_Source\PSoC5/cyfitter_cfg.c **** *  as Clocks and Pins as well as any component configuration that is necessary.
 580:Generated_Source\PSoC5/cyfitter_cfg.c **** *
 581:Generated_Source\PSoC5/cyfitter_cfg.c **** * Parameters:
 582:Generated_Source\PSoC5/cyfitter_cfg.c **** *   void
 583:Generated_Source\PSoC5/cyfitter_cfg.c **** *
ARM GAS  C:\Users\CLUBRO~1\AppData\Local\Temp\ccKe4Mdk.s 			page 25


 584:Generated_Source\PSoC5/cyfitter_cfg.c **** * Return:
 585:Generated_Source\PSoC5/cyfitter_cfg.c **** *   void
 586:Generated_Source\PSoC5/cyfitter_cfg.c **** *
 587:Generated_Source\PSoC5/cyfitter_cfg.c **** *******************************************************************************/
 588:Generated_Source\PSoC5/cyfitter_cfg.c **** 
 589:Generated_Source\PSoC5/cyfitter_cfg.c **** void cyfitter_cfg(void)
 590:Generated_Source\PSoC5/cyfitter_cfg.c **** {
 742              		.loc 1 590 0
 743              		.cfi_startproc
 744              		@ args = 0, pretend = 0, frame = 0
 745              		@ frame_needed = 0, uses_anonymous_args = 0
 746 0000 38B5     		push	{r3, r4, r5, lr}
 747              		.cfi_def_cfa_offset 16
 748              		.cfi_offset 3, -16
 749              		.cfi_offset 4, -12
 750              		.cfi_offset 5, -8
 751              		.cfi_offset 14, -4
 591:Generated_Source\PSoC5/cyfitter_cfg.c **** #ifdef CYGlobalIntDisable
 592:Generated_Source\PSoC5/cyfitter_cfg.c **** 	/* Disable interrupts by default. Let user enable if/when they want. */
 593:Generated_Source\PSoC5/cyfitter_cfg.c **** 	CYGlobalIntDisable
 752              		.loc 1 593 0
 753              		.syntax unified
 754              	@ 593 "Generated_Source\PSoC5\cyfitter_cfg.c" 1
 755 0002 72B6     		CPSID   i
 756              	@ 0 "" 2
 594:Generated_Source\PSoC5/cyfitter_cfg.c **** #endif
 595:Generated_Source\PSoC5/cyfitter_cfg.c **** 
 596:Generated_Source\PSoC5/cyfitter_cfg.c **** 	/* Enable/Disable Debug functionality based on settings from System DWR */
 597:Generated_Source\PSoC5/cyfitter_cfg.c **** 	CY_SET_XTND_REG8((void CYFAR *)CYREG_MLOGIC_DEBUG, (CY_GET_XTND_REG8((void CYFAR *)CYREG_MLOGIC_DE
 757              		.loc 1 597 0
 758              		.thumb
 759              		.syntax unified
 760 0004 424A     		ldr	r2, .L63
 761 0006 1378     		ldrb	r3, [r2]	@ zero_extendqisi2
 762 0008 43F00403 		orr	r3, r3, #4
 763 000c 1370     		strb	r3, [r2]
 764              	.LVL55:
 765              	.LBB3:
 598:Generated_Source\PSoC5/cyfitter_cfg.c **** 
 599:Generated_Source\PSoC5/cyfitter_cfg.c **** 	{
 600:Generated_Source\PSoC5/cyfitter_cfg.c **** 
 601:Generated_Source\PSoC5/cyfitter_cfg.c **** 		CYPACKED typedef struct {
 602:Generated_Source\PSoC5/cyfitter_cfg.c **** 			void CYFAR *address;
 603:Generated_Source\PSoC5/cyfitter_cfg.c **** 			uint16 size;
 604:Generated_Source\PSoC5/cyfitter_cfg.c **** 		} CYPACKED_ATTR cfg_memset_t;
 605:Generated_Source\PSoC5/cyfitter_cfg.c **** 
 606:Generated_Source\PSoC5/cyfitter_cfg.c **** 		static const cfg_memset_t CYCODE cfg_memset_list[] = {
 607:Generated_Source\PSoC5/cyfitter_cfg.c **** 			/* address, size */
 608:Generated_Source\PSoC5/cyfitter_cfg.c **** 			{(void CYFAR *)(CYREG_PRT4_DR), 48u},
 609:Generated_Source\PSoC5/cyfitter_cfg.c **** 			{(void CYFAR *)(CYDEV_UCFG_B0_P0_U0_BASE), 4096u},
 610:Generated_Source\PSoC5/cyfitter_cfg.c **** 			{(void CYFAR *)(CYDEV_UCFG_B1_P2_U0_BASE), 2048u},
 611:Generated_Source\PSoC5/cyfitter_cfg.c **** 			{(void CYFAR *)(CYDEV_UCFG_DSI0_BASE), 2560u},
 612:Generated_Source\PSoC5/cyfitter_cfg.c **** 			{(void CYFAR *)(CYDEV_UCFG_DSI12_BASE), 512u},
 613:Generated_Source\PSoC5/cyfitter_cfg.c **** 			{(void CYFAR *)(CYREG_BCTL0_MDCLK_EN), 32u},
 614:Generated_Source\PSoC5/cyfitter_cfg.c **** 		};
 615:Generated_Source\PSoC5/cyfitter_cfg.c **** 
 616:Generated_Source\PSoC5/cyfitter_cfg.c **** 		uint8 CYDATA i;
ARM GAS  C:\Users\CLUBRO~1\AppData\Local\Temp\ccKe4Mdk.s 			page 26


 617:Generated_Source\PSoC5/cyfitter_cfg.c **** 
 618:Generated_Source\PSoC5/cyfitter_cfg.c **** 		/* Zero out critical memory blocks before beginning configuration */
 619:Generated_Source\PSoC5/cyfitter_cfg.c **** 		for (i = 0u; i < (sizeof(cfg_memset_list)/sizeof(cfg_memset_list[0])); i++)
 766              		.loc 1 619 0
 767 000e 0024     		movs	r4, #0
 768 0010 0CE0     		b	.L60
 769              	.LVL56:
 770              	.L61:
 771              	.LBB4:
 620:Generated_Source\PSoC5/cyfitter_cfg.c **** 		{
 621:Generated_Source\PSoC5/cyfitter_cfg.c **** 			const cfg_memset_t CYCODE * CYDATA ms = &cfg_memset_list[i];
 622:Generated_Source\PSoC5/cyfitter_cfg.c **** 			CYMEMZERO(ms->address, (size_t)(uint32)(ms->size));
 772              		.loc 1 622 0 discriminator 3
 773 0012 4048     		ldr	r0, .L63+4
 774 0014 6300     		lsls	r3, r4, #1
 775 0016 1A19     		adds	r2, r3, r4
 776 0018 5100     		lsls	r1, r2, #1
 777 001a 0144     		add	r1, r1, r0
 778 001c 0A46     		mov	r2, r1
 779 001e B1F87C10 		ldrh	r1, [r1, #124]
 780 0022 906F     		ldr	r0, [r2, #120]	@ unaligned
 781 0024 FFF7FEFF 		bl	CYMEMZERO
 782              	.LVL57:
 783              	.LBE4:
 619:Generated_Source\PSoC5/cyfitter_cfg.c **** 		{
 784              		.loc 1 619 0 discriminator 3
 785 0028 0134     		adds	r4, r4, #1
 786              	.LVL58:
 787 002a E4B2     		uxtb	r4, r4
 788              	.LVL59:
 789              	.L60:
 619:Generated_Source\PSoC5/cyfitter_cfg.c **** 		{
 790              		.loc 1 619 0 is_stmt 0 discriminator 1
 791 002c 052C     		cmp	r4, #5
 792 002e F0D9     		bls	.L61
 623:Generated_Source\PSoC5/cyfitter_cfg.c **** 		}
 624:Generated_Source\PSoC5/cyfitter_cfg.c **** 
 625:Generated_Source\PSoC5/cyfitter_cfg.c **** 		cfg_write_bytes32(cy_cfg_addr_table, cy_cfg_data_table);
 793              		.loc 1 625 0 is_stmt 1
 794 0030 3949     		ldr	r1, .L63+8
 795 0032 4FF09040 		mov	r0, #1207959552
 796 0036 FFF7FEFF 		bl	cfg_write_bytes32
 797              	.LVL60:
 626:Generated_Source\PSoC5/cyfitter_cfg.c **** 
 627:Generated_Source\PSoC5/cyfitter_cfg.c **** 		/* Perform normal device configuration. Order is not critical for these items. */
 628:Generated_Source\PSoC5/cyfitter_cfg.c **** 		CYMEMZERO((void CYFAR *)(CYREG_PHUB_CFGMEM0_CFG0), 4u);
 798              		.loc 1 628 0
 799 003a 0421     		movs	r1, #4
 800 003c 3748     		ldr	r0, .L63+12
 801 003e FFF7FEFF 		bl	CYMEMZERO
 802              	.LVL61:
 629:Generated_Source\PSoC5/cyfitter_cfg.c **** 		CYMEMZERO((void CYFAR *)(CYREG_PHUB_CFGMEM1_CFG0), 4u);
 803              		.loc 1 629 0
 804 0042 0421     		movs	r1, #4
 805 0044 3648     		ldr	r0, .L63+16
 806 0046 FFF7FEFF 		bl	CYMEMZERO
 807              	.LVL62:
ARM GAS  C:\Users\CLUBRO~1\AppData\Local\Temp\ccKe4Mdk.s 			page 27


 630:Generated_Source\PSoC5/cyfitter_cfg.c **** 		CYMEMZERO((void CYFAR *)(CYREG_PHUB_CFGMEM2_CFG0), 4u);
 808              		.loc 1 630 0
 809 004a 0421     		movs	r1, #4
 810 004c 3548     		ldr	r0, .L63+20
 811 004e FFF7FEFF 		bl	CYMEMZERO
 812              	.LVL63:
 631:Generated_Source\PSoC5/cyfitter_cfg.c **** 		CYMEMZERO((void CYFAR *)(CYREG_PHUB_CFGMEM3_CFG0), 4u);
 813              		.loc 1 631 0
 814 0052 0421     		movs	r1, #4
 815 0054 3448     		ldr	r0, .L63+24
 816 0056 FFF7FEFF 		bl	CYMEMZERO
 817              	.LVL64:
 632:Generated_Source\PSoC5/cyfitter_cfg.c **** 		CYMEMZERO((void CYFAR *)(CYREG_PHUB_CFGMEM4_CFG0), 4u);
 818              		.loc 1 632 0
 819 005a 0421     		movs	r1, #4
 820 005c 3348     		ldr	r0, .L63+28
 821 005e FFF7FEFF 		bl	CYMEMZERO
 822              	.LVL65:
 633:Generated_Source\PSoC5/cyfitter_cfg.c **** 		CYMEMZERO((void CYFAR *)(CYREG_PHUB_CFGMEM5_CFG0), 4u);
 823              		.loc 1 633 0
 824 0062 0421     		movs	r1, #4
 825 0064 3248     		ldr	r0, .L63+32
 826 0066 FFF7FEFF 		bl	CYMEMZERO
 827              	.LVL66:
 634:Generated_Source\PSoC5/cyfitter_cfg.c **** 		CYMEMZERO((void CYFAR *)(CYREG_PHUB_CFGMEM6_CFG0), 4u);
 828              		.loc 1 634 0
 829 006a 0421     		movs	r1, #4
 830 006c 3148     		ldr	r0, .L63+36
 831 006e FFF7FEFF 		bl	CYMEMZERO
 832              	.LVL67:
 635:Generated_Source\PSoC5/cyfitter_cfg.c **** 		CYMEMZERO((void CYFAR *)(CYREG_PHUB_CFGMEM7_CFG0), 4u);
 833              		.loc 1 635 0
 834 0072 0421     		movs	r1, #4
 835 0074 3048     		ldr	r0, .L63+40
 836 0076 FFF7FEFF 		bl	CYMEMZERO
 837              	.LVL68:
 636:Generated_Source\PSoC5/cyfitter_cfg.c **** 
 637:Generated_Source\PSoC5/cyfitter_cfg.c **** 		/* Enable digital routing */
 638:Generated_Source\PSoC5/cyfitter_cfg.c **** 		CY_SET_XTND_REG8((void CYFAR *)CYREG_BCTL0_BANK_CTL, CY_GET_XTND_REG8((void CYFAR *)CYREG_BCTL0_B
 838              		.loc 1 638 0
 839 007a 304A     		ldr	r2, .L63+44
 840 007c 1378     		ldrb	r3, [r2]	@ zero_extendqisi2
 841 007e 43F00203 		orr	r3, r3, #2
 842 0082 1370     		strb	r3, [r2]
 639:Generated_Source\PSoC5/cyfitter_cfg.c **** 		CY_SET_XTND_REG8((void CYFAR *)CYREG_BCTL1_BANK_CTL, CY_GET_XTND_REG8((void CYFAR *)CYREG_BCTL1_B
 843              		.loc 1 639 0
 844 0084 1032     		adds	r2, r2, #16
 845 0086 1378     		ldrb	r3, [r2]	@ zero_extendqisi2
 846 0088 43F00203 		orr	r3, r3, #2
 847 008c 1370     		strb	r3, [r2]
 640:Generated_Source\PSoC5/cyfitter_cfg.c **** 
 641:Generated_Source\PSoC5/cyfitter_cfg.c **** 		/* Enable UDB array */
 642:Generated_Source\PSoC5/cyfitter_cfg.c **** 		CY_SET_XTND_REG8((void CYFAR *)CYREG_PM_ACT_CFG0, CY_GET_XTND_REG8((void CYFAR *)CYREG_PM_ACT_CFG
 848              		.loc 1 642 0
 849 008e 2C4C     		ldr	r4, .L63+48
 850              	.LVL69:
 851 0090 2378     		ldrb	r3, [r4]	@ zero_extendqisi2
ARM GAS  C:\Users\CLUBRO~1\AppData\Local\Temp\ccKe4Mdk.s 			page 28


 852 0092 43F04003 		orr	r3, r3, #64
 853 0096 2370     		strb	r3, [r4]
 643:Generated_Source\PSoC5/cyfitter_cfg.c **** 		CY_SET_XTND_REG8((void CYFAR *)CYREG_PM_AVAIL_CR2, CY_GET_XTND_REG8((void CYFAR *)CYREG_PM_AVAIL_
 854              		.loc 1 643 0
 855 0098 A2F58632 		sub	r2, r2, #68608
 856 009c 513A     		subs	r2, r2, #81
 857 009e 1378     		ldrb	r3, [r2]	@ zero_extendqisi2
 858 00a0 43F01003 		orr	r3, r3, #16
 859 00a4 1370     		strb	r3, [r2]
 860              	.LBE3:
 644:Generated_Source\PSoC5/cyfitter_cfg.c **** 	}
 645:Generated_Source\PSoC5/cyfitter_cfg.c **** 
 646:Generated_Source\PSoC5/cyfitter_cfg.c **** 
 647:Generated_Source\PSoC5/cyfitter_cfg.c **** 	/* Perform second pass device configuration. These items must be configured in specific order afte
 648:Generated_Source\PSoC5/cyfitter_cfg.c **** 	CYCONFIGCPY((void CYFAR *)(CYREG_PRT0_DM0), (const void CYFAR *)(BS_IOPINS0_0_VAL), 8u);
 861              		.loc 1 648 0
 862 00a6 0822     		movs	r2, #8
 863 00a8 2649     		ldr	r1, .L63+52
 864 00aa 2748     		ldr	r0, .L63+56
 865 00ac FFF7FEFF 		bl	CYCONFIGCPY
 866              	.LVL70:
 649:Generated_Source\PSoC5/cyfitter_cfg.c **** 	CYCONFIGCPY((void CYFAR *)(CYREG_PRT12_DM0), (const void CYFAR *)(BS_IOPINS0_7_VAL), 8u);
 867              		.loc 1 649 0
 868 00b0 0822     		movs	r2, #8
 869 00b2 2649     		ldr	r1, .L63+60
 870 00b4 2648     		ldr	r0, .L63+64
 871 00b6 FFF7FEFF 		bl	CYCONFIGCPY
 872              	.LVL71:
 650:Generated_Source\PSoC5/cyfitter_cfg.c **** 	CYCONFIGCPY((void CYFAR *)(CYREG_PRT15_DM0), (const void CYFAR *)(BS_IOPINS0_8_VAL), 8u);
 873              		.loc 1 650 0
 874 00ba 0822     		movs	r2, #8
 875 00bc 2549     		ldr	r1, .L63+68
 876 00be 2648     		ldr	r0, .L63+72
 877 00c0 FFF7FEFF 		bl	CYCONFIGCPY
 878              	.LVL72:
 651:Generated_Source\PSoC5/cyfitter_cfg.c **** 	CYCONFIGCPY((void CYFAR *)(CYREG_PRT1_DM0), (const void CYFAR *)(BS_IOPINS0_1_VAL), 8u);
 879              		.loc 1 651 0
 880 00c4 0822     		movs	r2, #8
 881 00c6 2549     		ldr	r1, .L63+76
 882 00c8 2548     		ldr	r0, .L63+80
 883 00ca FFF7FEFF 		bl	CYCONFIGCPY
 884              	.LVL73:
 652:Generated_Source\PSoC5/cyfitter_cfg.c **** 	CYCONFIGCPY((void CYFAR *)(CYREG_PRT2_DR), (const void CYFAR *)(BS_IOPINS0_2_VAL), 10u);
 885              		.loc 1 652 0
 886 00ce 0A22     		movs	r2, #10
 887 00d0 2449     		ldr	r1, .L63+84
 888 00d2 2548     		ldr	r0, .L63+88
 889 00d4 FFF7FEFF 		bl	CYCONFIGCPY
 890              	.LVL74:
 653:Generated_Source\PSoC5/cyfitter_cfg.c **** 	CYCONFIGCPY((void CYFAR *)(CYREG_PRT3_DM0), (const void CYFAR *)(BS_IOPINS0_3_VAL), 8u);
 891              		.loc 1 653 0
 892 00d8 0822     		movs	r2, #8
 893 00da 2449     		ldr	r1, .L63+92
 894 00dc 2448     		ldr	r0, .L63+96
 895 00de FFF7FEFF 		bl	CYCONFIGCPY
 896              	.LVL75:
 654:Generated_Source\PSoC5/cyfitter_cfg.c **** 	/* Switch Boost to the precision bandgap reference from its internal reference */
ARM GAS  C:\Users\CLUBRO~1\AppData\Local\Temp\ccKe4Mdk.s 			page 29


 655:Generated_Source\PSoC5/cyfitter_cfg.c **** 	CY_SET_REG8((void CYXDATA *)CYREG_BOOST_CR2, (CY_GET_REG8((void CYXDATA *)CYREG_BOOST_CR2) | 0x08u
 897              		.loc 1 655 0
 898 00e2 244A     		ldr	r2, .L63+100
 899 00e4 1378     		ldrb	r3, [r2]	@ zero_extendqisi2
 900 00e6 43F00803 		orr	r3, r3, #8
 901 00ea 1370     		strb	r3, [r2]
 656:Generated_Source\PSoC5/cyfitter_cfg.c **** 
 657:Generated_Source\PSoC5/cyfitter_cfg.c **** 	/* Set Flash Cycles based on max possible frequency in case a glitch occurs during ClockSetup(). *
 658:Generated_Source\PSoC5/cyfitter_cfg.c **** 	CY_SET_XTND_REG8((void CYFAR *)(CYREG_CACHE_CC_CTL), (((CYDEV_INSTRUCT_CACHE_ENABLED) != 0) ? 0x61
 902              		.loc 1 658 0
 903 00ec 224D     		ldr	r5, .L63+104
 904 00ee 6123     		movs	r3, #97
 905 00f0 2B70     		strb	r3, [r5]
 659:Generated_Source\PSoC5/cyfitter_cfg.c **** 	/* Setup clocks based on selections from Clock DWR */
 660:Generated_Source\PSoC5/cyfitter_cfg.c **** 	ClockSetup();
 906              		.loc 1 660 0
 907 00f2 FFF7FEFF 		bl	ClockSetup
 908              	.LVL76:
 661:Generated_Source\PSoC5/cyfitter_cfg.c **** 	/* Set Flash Cycles based on newly configured 24.00MHz Bus Clock. */
 662:Generated_Source\PSoC5/cyfitter_cfg.c **** 	CY_SET_XTND_REG8((void CYFAR *)(CYREG_CACHE_CC_CTL), (((CYDEV_INSTRUCT_CACHE_ENABLED) != 0) ? 0x81
 909              		.loc 1 662 0
 910 00f6 8123     		movs	r3, #129
 911 00f8 2B70     		strb	r3, [r5]
 663:Generated_Source\PSoC5/cyfitter_cfg.c **** 	CY_SET_XTND_REG8((void CYFAR *)(CYREG_PANTHER_WAITPIPE), 0x01u);
 912              		.loc 1 663 0
 913 00fa 0122     		movs	r2, #1
 914 00fc 1F4B     		ldr	r3, .L63+108
 915 00fe 1A70     		strb	r2, [r3]
 664:Generated_Source\PSoC5/cyfitter_cfg.c **** 
 665:Generated_Source\PSoC5/cyfitter_cfg.c **** 	/* Perform basic analog initialization to defaults */
 666:Generated_Source\PSoC5/cyfitter_cfg.c **** 	AnalogSetDefault();
 916              		.loc 1 666 0
 917 0100 FFF7FEFF 		bl	AnalogSetDefault
 918              	.LVL77:
 667:Generated_Source\PSoC5/cyfitter_cfg.c **** 
 668:Generated_Source\PSoC5/cyfitter_cfg.c **** 	/* Configure alternate active mode */
 669:Generated_Source\PSoC5/cyfitter_cfg.c **** 	CYCONFIGCPY((void CYFAR *)CYDEV_PM_STBY_BASE, (const void CYFAR *)CYDEV_PM_ACT_BASE, 14u);
 919              		.loc 1 669 0
 920 0104 0E22     		movs	r2, #14
 921 0106 2146     		mov	r1, r4
 922 0108 1D48     		ldr	r0, .L63+112
 923 010a FFF7FEFF 		bl	CYCONFIGCPY
 924              	.LVL78:
 925 010e 38BD     		pop	{r3, r4, r5, pc}
 926              	.L64:
 927              		.align	2
 928              	.L63:
 929 0110 E8460040 		.word	1073759976
 930 0114 00000000 		.word	.LANCHOR1
 931 0118 60000048 		.word	1207959648
 932 011c 00760040 		.word	1073772032
 933 0120 08760040 		.word	1073772040
 934 0124 10760040 		.word	1073772048
 935 0128 18760040 		.word	1073772056
 936 012c 20760040 		.word	1073772064
 937 0130 28760040 		.word	1073772072
 938 0134 30760040 		.word	1073772080
ARM GAS  C:\Users\CLUBRO~1\AppData\Local\Temp\ccKe4Mdk.s 			page 30


 939 0138 38760040 		.word	1073772088
 940 013c 03500140 		.word	1073827843
 941 0140 A0430040 		.word	1073759136
 942 0144 5C010048 		.word	1207959900
 943 0148 02510040 		.word	1073762562
 944 014c 64010048 		.word	1207959908
 945 0150 C2510040 		.word	1073762754
 946 0154 6C010048 		.word	1207959916
 947 0158 F2510040 		.word	1073762802
 948 015c 74010048 		.word	1207959924
 949 0160 12510040 		.word	1073762578
 950 0164 7C010048 		.word	1207959932
 951 0168 20510040 		.word	1073762592
 952 016c 88010048 		.word	1207959944
 953 0170 32510040 		.word	1073762610
 954 0174 22430040 		.word	1073759010
 955 0178 00480040 		.word	1073760256
 956 017c 04000840 		.word	1074266116
 957 0180 B0430040 		.word	1073759152
 958              		.cfi_endproc
 959              	.LFE12:
 960              		.size	cyfitter_cfg, .-cyfitter_cfg
 961              		.section	.rodata
 962              		.align	2
 963              		.set	.LANCHOR1,. + 0
 964              		.type	AMux_1__outerAddr, %object
 965              		.size	AMux_1__outerAddr, 16
 966              	AMux_1__outerAddr:
 967 0000 985A0040 		.word	1073765016
 968 0004 805A0040 		.word	1073764992
 969 0008 885A0040 		.word	1073765000
 970 000c 905A0040 		.word	1073765008
 971              		.type	AMux_1__outerMask, %object
 972              		.size	AMux_1__outerMask, 4
 973              	AMux_1__outerMask:
 974 0010 20       		.byte	32
 975 0011 02       		.byte	2
 976 0012 02       		.byte	2
 977 0013 20       		.byte	32
 978              		.type	AMux_1__innerMap, %object
 979              		.size	AMux_1__innerMap, 4
 980              	AMux_1__innerMap:
 981 0014 00000000 		.space	4
 982              		.type	AMux_2__outerAddr, %object
 983              		.size	AMux_2__outerAddr, 64
 984              	AMux_2__outerAddr:
 985 0018 3C510040 		.word	1073762620
 986 001c 3C510040 		.word	1073762620
 987 0020 3C510040 		.word	1073762620
 988 0024 3C510040 		.word	1073762620
 989 0028 3C510040 		.word	1073762620
 990 002c 3C510040 		.word	1073762620
 991 0030 3C510040 		.word	1073762620
 992 0034 FC510040 		.word	1073762812
 993 0038 FC510040 		.word	1073762812
 994 003c FC510040 		.word	1073762812
 995 0040 FC510040 		.word	1073762812
ARM GAS  C:\Users\CLUBRO~1\AppData\Local\Temp\ccKe4Mdk.s 			page 31


 996 0044 FC510040 		.word	1073762812
 997 0048 FC510040 		.word	1073762812
 998 004c 0C510040 		.word	1073762572
 999 0050 0C510040 		.word	1073762572
 1000 0054 0C510040 		.word	1073762572
 1001              		.type	AMux_2__outerMask, %object
 1002              		.size	AMux_2__outerMask, 16
 1003              	AMux_2__outerMask:
 1004 0058 01       		.byte	1
 1005 0059 02       		.byte	2
 1006 005a 08       		.byte	8
 1007 005b 10       		.byte	16
 1008 005c 20       		.byte	32
 1009 005d 40       		.byte	64
 1010 005e 80       		.byte	-128
 1011 005f 01       		.byte	1
 1012 0060 02       		.byte	2
 1013 0061 04       		.byte	4
 1014 0062 08       		.byte	8
 1015 0063 10       		.byte	16
 1016 0064 20       		.byte	32
 1017 0065 01       		.byte	1
 1018 0066 02       		.byte	2
 1019 0067 04       		.byte	4
 1020              		.type	AMux_2__innerMap, %object
 1021              		.size	AMux_2__innerMap, 16
 1022              	AMux_2__innerMap:
 1023 0068 00000000 		.space	16
 1023      00000000 
 1023      00000000 
 1023      00000000 
 1024              		.type	cfg_memset_list.5055, %object
 1025              		.size	cfg_memset_list.5055, 36
 1026              	cfg_memset_list.5055:
 1027 0078 40510040 		.word	1073762624
 1028 007c 3000     		.short	48
 1029 007e 00000140 		.4byte	1073807360
 1030 0082 0010     		.short	4096
 1031 0084 00140140 		.word	1073812480
 1032 0088 0008     		.short	2048
 1033 008a 00400140 		.4byte	1073823744
 1034 008e 000A     		.short	2560
 1035 0090 004C0140 		.word	1073826816
 1036 0094 0002     		.short	512
 1037 0096 00500140 		.4byte	1073827840
 1038 009a 2000     		.short	32
 1039              		.bss
 1040              		.align	2
 1041              		.set	.LANCHOR0,. + 0
 1042              		.type	AMux_1__armsEnabled, %object
 1043              		.size	AMux_1__armsEnabled, 1
 1044              	AMux_1__armsEnabled:
 1045 0000 00       		.space	1
 1046 0001 000000   		.space	3
 1047              		.type	AMux_1__refCnt, %object
 1048              		.size	AMux_1__refCnt, 1
 1049              	AMux_1__refCnt:
ARM GAS  C:\Users\CLUBRO~1\AppData\Local\Temp\ccKe4Mdk.s 			page 32


 1050 0004 00       		.space	1
 1051 0005 00       		.space	1
 1052              		.type	AMux_2__armsEnabled, %object
 1053              		.size	AMux_2__armsEnabled, 2
 1054              	AMux_2__armsEnabled:
 1055 0006 0000     		.space	2
 1056              		.type	AMux_2__refCnt, %object
 1057              		.size	AMux_2__refCnt, 1
 1058              	AMux_2__refCnt:
 1059 0008 00       		.space	1
 1060              		.text
 1061              	.Letext0:
 1062              		.file 2 "c:\\program files (x86)\\cypress\\psoc creator\\4.2\\psoc creator\\import\\gnu\\arm\\5.4.
 1063              		.file 3 "Generated_Source\\PSoC5\\cytypes.h"
 1064              		.file 4 "Generated_Source\\PSoC5\\CyLib.h"