ARM GAS  C:\Users\CLUBRO~1\AppData\Local\Temp\ccJvmMk0.s 			page 1


   1              		.syntax unified
   2              		.cpu cortex-m3
   3              		.fpu softvfp
   4              		.eabi_attribute 20, 1
   5              		.eabi_attribute 21, 1
   6              		.eabi_attribute 23, 3
   7              		.eabi_attribute 24, 1
   8              		.eabi_attribute 25, 1
   9              		.eabi_attribute 26, 1
  10              		.eabi_attribute 30, 1
  11              		.eabi_attribute 34, 1
  12              		.eabi_attribute 18, 4
  13              		.thumb
  14              		.syntax unified
  15              		.file	"isr_button_0.c"
  16              		.text
  17              	.Ltext0:
  18              		.cfi_sections	.debug_frame
  19              		.section	.text.isr_button_0_Interrupt,"ax",%progbits
  20              		.align	2
  21              		.global	isr_button_0_Interrupt
  22              		.thumb
  23              		.thumb_func
  24              		.type	isr_button_0_Interrupt, %function
  25              	isr_button_0_Interrupt:
  26              	.LFB3:
  27              		.file 1 "Generated_Source\\PSoC5\\isr_button_0.c"
   1:Generated_Source\PSoC5/isr_button_0.c **** /*******************************************************************************
   2:Generated_Source\PSoC5/isr_button_0.c **** * File Name: isr_button_0.c  
   3:Generated_Source\PSoC5/isr_button_0.c **** * Version 1.70
   4:Generated_Source\PSoC5/isr_button_0.c **** *
   5:Generated_Source\PSoC5/isr_button_0.c **** *  Description:
   6:Generated_Source\PSoC5/isr_button_0.c **** *   API for controlling the state of an interrupt.
   7:Generated_Source\PSoC5/isr_button_0.c **** *
   8:Generated_Source\PSoC5/isr_button_0.c **** *
   9:Generated_Source\PSoC5/isr_button_0.c **** *  Note:
  10:Generated_Source\PSoC5/isr_button_0.c **** *
  11:Generated_Source\PSoC5/isr_button_0.c **** ********************************************************************************
  12:Generated_Source\PSoC5/isr_button_0.c **** * Copyright 2008-2015, Cypress Semiconductor Corporation.  All rights reserved.
  13:Generated_Source\PSoC5/isr_button_0.c **** * You may use this file only in accordance with the license, terms, conditions, 
  14:Generated_Source\PSoC5/isr_button_0.c **** * disclaimers, and limitations in the end user license agreement accompanying 
  15:Generated_Source\PSoC5/isr_button_0.c **** * the software package with which this file was provided.
  16:Generated_Source\PSoC5/isr_button_0.c **** *******************************************************************************/
  17:Generated_Source\PSoC5/isr_button_0.c **** 
  18:Generated_Source\PSoC5/isr_button_0.c **** 
  19:Generated_Source\PSoC5/isr_button_0.c **** #include <cydevice_trm.h>
  20:Generated_Source\PSoC5/isr_button_0.c **** #include <CyLib.h>
  21:Generated_Source\PSoC5/isr_button_0.c **** #include <isr_button_0.h>
  22:Generated_Source\PSoC5/isr_button_0.c **** #include "cyapicallbacks.h"
  23:Generated_Source\PSoC5/isr_button_0.c **** 
  24:Generated_Source\PSoC5/isr_button_0.c **** #if !defined(isr_button_0__REMOVED) /* Check for removal by optimization */
  25:Generated_Source\PSoC5/isr_button_0.c **** 
  26:Generated_Source\PSoC5/isr_button_0.c **** /*******************************************************************************
  27:Generated_Source\PSoC5/isr_button_0.c **** *  Place your includes, defines and code here 
  28:Generated_Source\PSoC5/isr_button_0.c **** ********************************************************************************/
  29:Generated_Source\PSoC5/isr_button_0.c **** /* `#START isr_button_0_intc` */
  30:Generated_Source\PSoC5/isr_button_0.c ****     extern uint8 Flag_Rotary_P;
ARM GAS  C:\Users\CLUBRO~1\AppData\Local\Temp\ccJvmMk0.s 			page 2


  31:Generated_Source\PSoC5/isr_button_0.c **** /* `#END` */
  32:Generated_Source\PSoC5/isr_button_0.c **** 
  33:Generated_Source\PSoC5/isr_button_0.c **** #ifndef CYINT_IRQ_BASE
  34:Generated_Source\PSoC5/isr_button_0.c **** #define CYINT_IRQ_BASE      16
  35:Generated_Source\PSoC5/isr_button_0.c **** #endif /* CYINT_IRQ_BASE */
  36:Generated_Source\PSoC5/isr_button_0.c **** #ifndef CYINT_VECT_TABLE
  37:Generated_Source\PSoC5/isr_button_0.c **** #define CYINT_VECT_TABLE    ((cyisraddress **) CYREG_NVIC_VECT_OFFSET)
  38:Generated_Source\PSoC5/isr_button_0.c **** #endif /* CYINT_VECT_TABLE */
  39:Generated_Source\PSoC5/isr_button_0.c **** 
  40:Generated_Source\PSoC5/isr_button_0.c **** /* Declared in startup, used to set unused interrupts to. */
  41:Generated_Source\PSoC5/isr_button_0.c **** CY_ISR_PROTO(IntDefaultHandler);
  42:Generated_Source\PSoC5/isr_button_0.c **** 
  43:Generated_Source\PSoC5/isr_button_0.c **** 
  44:Generated_Source\PSoC5/isr_button_0.c **** /*******************************************************************************
  45:Generated_Source\PSoC5/isr_button_0.c **** * Function Name: isr_button_0_Start
  46:Generated_Source\PSoC5/isr_button_0.c **** ********************************************************************************
  47:Generated_Source\PSoC5/isr_button_0.c **** *
  48:Generated_Source\PSoC5/isr_button_0.c **** * Summary:
  49:Generated_Source\PSoC5/isr_button_0.c **** *  Set up the interrupt and enable it. This function disables the interrupt, 
  50:Generated_Source\PSoC5/isr_button_0.c **** *  sets the default interrupt vector, sets the priority from the value in the
  51:Generated_Source\PSoC5/isr_button_0.c **** *  Design Wide Resources Interrupt Editor, then enables the interrupt to the 
  52:Generated_Source\PSoC5/isr_button_0.c **** *  interrupt controller.
  53:Generated_Source\PSoC5/isr_button_0.c **** *
  54:Generated_Source\PSoC5/isr_button_0.c **** * Parameters:  
  55:Generated_Source\PSoC5/isr_button_0.c **** *   None
  56:Generated_Source\PSoC5/isr_button_0.c **** *
  57:Generated_Source\PSoC5/isr_button_0.c **** * Return:
  58:Generated_Source\PSoC5/isr_button_0.c **** *   None
  59:Generated_Source\PSoC5/isr_button_0.c **** *
  60:Generated_Source\PSoC5/isr_button_0.c **** *******************************************************************************/
  61:Generated_Source\PSoC5/isr_button_0.c **** void isr_button_0_Start(void)
  62:Generated_Source\PSoC5/isr_button_0.c **** {
  63:Generated_Source\PSoC5/isr_button_0.c ****     /* For all we know the interrupt is active. */
  64:Generated_Source\PSoC5/isr_button_0.c ****     isr_button_0_Disable();
  65:Generated_Source\PSoC5/isr_button_0.c **** 
  66:Generated_Source\PSoC5/isr_button_0.c ****     /* Set the ISR to point to the isr_button_0 Interrupt. */
  67:Generated_Source\PSoC5/isr_button_0.c ****     isr_button_0_SetVector(&isr_button_0_Interrupt);
  68:Generated_Source\PSoC5/isr_button_0.c **** 
  69:Generated_Source\PSoC5/isr_button_0.c ****     /* Set the priority. */
  70:Generated_Source\PSoC5/isr_button_0.c ****     isr_button_0_SetPriority((uint8)isr_button_0_INTC_PRIOR_NUMBER);
  71:Generated_Source\PSoC5/isr_button_0.c **** 
  72:Generated_Source\PSoC5/isr_button_0.c ****     /* Enable it. */
  73:Generated_Source\PSoC5/isr_button_0.c ****     isr_button_0_Enable();
  74:Generated_Source\PSoC5/isr_button_0.c **** }
  75:Generated_Source\PSoC5/isr_button_0.c **** 
  76:Generated_Source\PSoC5/isr_button_0.c **** 
  77:Generated_Source\PSoC5/isr_button_0.c **** /*******************************************************************************
  78:Generated_Source\PSoC5/isr_button_0.c **** * Function Name: isr_button_0_StartEx
  79:Generated_Source\PSoC5/isr_button_0.c **** ********************************************************************************
  80:Generated_Source\PSoC5/isr_button_0.c **** *
  81:Generated_Source\PSoC5/isr_button_0.c **** * Summary:
  82:Generated_Source\PSoC5/isr_button_0.c **** *  Sets up the interrupt and enables it. This function disables the interrupt,
  83:Generated_Source\PSoC5/isr_button_0.c **** *  sets the interrupt vector based on the address passed in, sets the priority 
  84:Generated_Source\PSoC5/isr_button_0.c **** *  from the value in the Design Wide Resources Interrupt Editor, then enables 
  85:Generated_Source\PSoC5/isr_button_0.c **** *  the interrupt to the interrupt controller.
  86:Generated_Source\PSoC5/isr_button_0.c **** *  
  87:Generated_Source\PSoC5/isr_button_0.c **** *  When defining ISR functions, the CY_ISR and CY_ISR_PROTO macros should be 
ARM GAS  C:\Users\CLUBRO~1\AppData\Local\Temp\ccJvmMk0.s 			page 3


  88:Generated_Source\PSoC5/isr_button_0.c **** *  used to provide consistent definition across compilers:
  89:Generated_Source\PSoC5/isr_button_0.c **** *  
  90:Generated_Source\PSoC5/isr_button_0.c **** *  Function definition example:
  91:Generated_Source\PSoC5/isr_button_0.c **** *   CY_ISR(MyISR)
  92:Generated_Source\PSoC5/isr_button_0.c **** *   {
  93:Generated_Source\PSoC5/isr_button_0.c **** *   }
  94:Generated_Source\PSoC5/isr_button_0.c **** *   Function prototype example:
  95:Generated_Source\PSoC5/isr_button_0.c **** *   CY_ISR_PROTO(MyISR);
  96:Generated_Source\PSoC5/isr_button_0.c **** *
  97:Generated_Source\PSoC5/isr_button_0.c **** * Parameters:  
  98:Generated_Source\PSoC5/isr_button_0.c **** *   address: Address of the ISR to set in the interrupt vector table.
  99:Generated_Source\PSoC5/isr_button_0.c **** *
 100:Generated_Source\PSoC5/isr_button_0.c **** * Return:
 101:Generated_Source\PSoC5/isr_button_0.c **** *   None
 102:Generated_Source\PSoC5/isr_button_0.c **** *
 103:Generated_Source\PSoC5/isr_button_0.c **** *******************************************************************************/
 104:Generated_Source\PSoC5/isr_button_0.c **** void isr_button_0_StartEx(cyisraddress address)
 105:Generated_Source\PSoC5/isr_button_0.c **** {
 106:Generated_Source\PSoC5/isr_button_0.c ****     /* For all we know the interrupt is active. */
 107:Generated_Source\PSoC5/isr_button_0.c ****     isr_button_0_Disable();
 108:Generated_Source\PSoC5/isr_button_0.c **** 
 109:Generated_Source\PSoC5/isr_button_0.c ****     /* Set the ISR to point to the isr_button_0 Interrupt. */
 110:Generated_Source\PSoC5/isr_button_0.c ****     isr_button_0_SetVector(address);
 111:Generated_Source\PSoC5/isr_button_0.c **** 
 112:Generated_Source\PSoC5/isr_button_0.c ****     /* Set the priority. */
 113:Generated_Source\PSoC5/isr_button_0.c ****     isr_button_0_SetPriority((uint8)isr_button_0_INTC_PRIOR_NUMBER);
 114:Generated_Source\PSoC5/isr_button_0.c **** 
 115:Generated_Source\PSoC5/isr_button_0.c ****     /* Enable it. */
 116:Generated_Source\PSoC5/isr_button_0.c ****     isr_button_0_Enable();
 117:Generated_Source\PSoC5/isr_button_0.c **** }
 118:Generated_Source\PSoC5/isr_button_0.c **** 
 119:Generated_Source\PSoC5/isr_button_0.c **** 
 120:Generated_Source\PSoC5/isr_button_0.c **** /*******************************************************************************
 121:Generated_Source\PSoC5/isr_button_0.c **** * Function Name: isr_button_0_Stop
 122:Generated_Source\PSoC5/isr_button_0.c **** ********************************************************************************
 123:Generated_Source\PSoC5/isr_button_0.c **** *
 124:Generated_Source\PSoC5/isr_button_0.c **** * Summary:
 125:Generated_Source\PSoC5/isr_button_0.c **** *   Disables and removes the interrupt.
 126:Generated_Source\PSoC5/isr_button_0.c **** *
 127:Generated_Source\PSoC5/isr_button_0.c **** * Parameters:  
 128:Generated_Source\PSoC5/isr_button_0.c **** *   None
 129:Generated_Source\PSoC5/isr_button_0.c **** *
 130:Generated_Source\PSoC5/isr_button_0.c **** * Return:
 131:Generated_Source\PSoC5/isr_button_0.c **** *   None
 132:Generated_Source\PSoC5/isr_button_0.c **** *
 133:Generated_Source\PSoC5/isr_button_0.c **** *******************************************************************************/
 134:Generated_Source\PSoC5/isr_button_0.c **** void isr_button_0_Stop(void)
 135:Generated_Source\PSoC5/isr_button_0.c **** {
 136:Generated_Source\PSoC5/isr_button_0.c ****     /* Disable this interrupt. */
 137:Generated_Source\PSoC5/isr_button_0.c ****     isr_button_0_Disable();
 138:Generated_Source\PSoC5/isr_button_0.c **** 
 139:Generated_Source\PSoC5/isr_button_0.c ****     /* Set the ISR to point to the passive one. */
 140:Generated_Source\PSoC5/isr_button_0.c ****     isr_button_0_SetVector(&IntDefaultHandler);
 141:Generated_Source\PSoC5/isr_button_0.c **** }
 142:Generated_Source\PSoC5/isr_button_0.c **** 
 143:Generated_Source\PSoC5/isr_button_0.c **** 
 144:Generated_Source\PSoC5/isr_button_0.c **** /*******************************************************************************
ARM GAS  C:\Users\CLUBRO~1\AppData\Local\Temp\ccJvmMk0.s 			page 4


 145:Generated_Source\PSoC5/isr_button_0.c **** * Function Name: isr_button_0_Interrupt
 146:Generated_Source\PSoC5/isr_button_0.c **** ********************************************************************************
 147:Generated_Source\PSoC5/isr_button_0.c **** *
 148:Generated_Source\PSoC5/isr_button_0.c **** * Summary:
 149:Generated_Source\PSoC5/isr_button_0.c **** *   The default Interrupt Service Routine for isr_button_0.
 150:Generated_Source\PSoC5/isr_button_0.c **** *
 151:Generated_Source\PSoC5/isr_button_0.c **** *   Add custom code between the coments to keep the next version of this file
 152:Generated_Source\PSoC5/isr_button_0.c **** *   from over writting your code.
 153:Generated_Source\PSoC5/isr_button_0.c **** *
 154:Generated_Source\PSoC5/isr_button_0.c **** * Parameters:  
 155:Generated_Source\PSoC5/isr_button_0.c **** *
 156:Generated_Source\PSoC5/isr_button_0.c **** * Return:
 157:Generated_Source\PSoC5/isr_button_0.c **** *   None
 158:Generated_Source\PSoC5/isr_button_0.c **** *
 159:Generated_Source\PSoC5/isr_button_0.c **** *******************************************************************************/
 160:Generated_Source\PSoC5/isr_button_0.c **** CY_ISR(isr_button_0_Interrupt)
 161:Generated_Source\PSoC5/isr_button_0.c **** {
  28              		.loc 1 161 0
  29              		.cfi_startproc
  30              		@ args = 0, pretend = 0, frame = 0
  31              		@ frame_needed = 0, uses_anonymous_args = 0
  32 0000 08B5     		push	{r3, lr}
  33              		.cfi_def_cfa_offset 8
  34              		.cfi_offset 3, -8
  35              		.cfi_offset 14, -4
 162:Generated_Source\PSoC5/isr_button_0.c ****     #ifdef isr_button_0_INTERRUPT_INTERRUPT_CALLBACK
 163:Generated_Source\PSoC5/isr_button_0.c ****         isr_button_0_Interrupt_InterruptCallback();
 164:Generated_Source\PSoC5/isr_button_0.c ****     #endif /* isr_button_0_INTERRUPT_INTERRUPT_CALLBACK */ 
 165:Generated_Source\PSoC5/isr_button_0.c **** 
 166:Generated_Source\PSoC5/isr_button_0.c ****     /*  Place your Interrupt code here. */
 167:Generated_Source\PSoC5/isr_button_0.c ****     /* `#START isr_button_0_Interrupt` */
 168:Generated_Source\PSoC5/isr_button_0.c ****         Flag_Rotary_P = 1;
  36              		.loc 1 168 0
  37 0002 0122     		movs	r2, #1
  38 0004 024B     		ldr	r3, .L3
  39 0006 1A70     		strb	r2, [r3]
 169:Generated_Source\PSoC5/isr_button_0.c ****         CyDelay(100);
  40              		.loc 1 169 0
  41 0008 6420     		movs	r0, #100
  42 000a FFF7FEFF 		bl	CyDelay
  43              	.LVL0:
  44 000e 08BD     		pop	{r3, pc}
  45              	.L4:
  46              		.align	2
  47              	.L3:
  48 0010 00000000 		.word	Flag_Rotary_P
  49              		.cfi_endproc
  50              	.LFE3:
  51              		.size	isr_button_0_Interrupt, .-isr_button_0_Interrupt
  52              		.section	.text.isr_button_0_SetVector,"ax",%progbits
  53              		.align	2
  54              		.global	isr_button_0_SetVector
  55              		.thumb
  56              		.thumb_func
  57              		.type	isr_button_0_SetVector, %function
  58              	isr_button_0_SetVector:
  59              	.LFB4:
ARM GAS  C:\Users\CLUBRO~1\AppData\Local\Temp\ccJvmMk0.s 			page 5


 170:Generated_Source\PSoC5/isr_button_0.c ****     /* `#END` */
 171:Generated_Source\PSoC5/isr_button_0.c **** }
 172:Generated_Source\PSoC5/isr_button_0.c **** 
 173:Generated_Source\PSoC5/isr_button_0.c **** 
 174:Generated_Source\PSoC5/isr_button_0.c **** /*******************************************************************************
 175:Generated_Source\PSoC5/isr_button_0.c **** * Function Name: isr_button_0_SetVector
 176:Generated_Source\PSoC5/isr_button_0.c **** ********************************************************************************
 177:Generated_Source\PSoC5/isr_button_0.c **** *
 178:Generated_Source\PSoC5/isr_button_0.c **** * Summary:
 179:Generated_Source\PSoC5/isr_button_0.c **** *   Change the ISR vector for the Interrupt. Note calling isr_button_0_Start
 180:Generated_Source\PSoC5/isr_button_0.c **** *   will override any effect this method would have had. To set the vector 
 181:Generated_Source\PSoC5/isr_button_0.c **** *   before the component has been started use isr_button_0_StartEx instead.
 182:Generated_Source\PSoC5/isr_button_0.c **** * 
 183:Generated_Source\PSoC5/isr_button_0.c **** *   When defining ISR functions, the CY_ISR and CY_ISR_PROTO macros should be 
 184:Generated_Source\PSoC5/isr_button_0.c **** *   used to provide consistent definition across compilers:
 185:Generated_Source\PSoC5/isr_button_0.c **** *
 186:Generated_Source\PSoC5/isr_button_0.c **** *   Function definition example:
 187:Generated_Source\PSoC5/isr_button_0.c **** *   CY_ISR(MyISR)
 188:Generated_Source\PSoC5/isr_button_0.c **** *   {
 189:Generated_Source\PSoC5/isr_button_0.c **** *   }
 190:Generated_Source\PSoC5/isr_button_0.c **** *
 191:Generated_Source\PSoC5/isr_button_0.c **** *   Function prototype example:
 192:Generated_Source\PSoC5/isr_button_0.c **** *     CY_ISR_PROTO(MyISR);
 193:Generated_Source\PSoC5/isr_button_0.c **** *
 194:Generated_Source\PSoC5/isr_button_0.c **** * Parameters:
 195:Generated_Source\PSoC5/isr_button_0.c **** *   address: Address of the ISR to set in the interrupt vector table.
 196:Generated_Source\PSoC5/isr_button_0.c **** *
 197:Generated_Source\PSoC5/isr_button_0.c **** * Return:
 198:Generated_Source\PSoC5/isr_button_0.c **** *   None
 199:Generated_Source\PSoC5/isr_button_0.c **** *
 200:Generated_Source\PSoC5/isr_button_0.c **** *******************************************************************************/
 201:Generated_Source\PSoC5/isr_button_0.c **** void isr_button_0_SetVector(cyisraddress address)
 202:Generated_Source\PSoC5/isr_button_0.c **** {
  60              		.loc 1 202 0
  61              		.cfi_startproc
  62              		@ args = 0, pretend = 0, frame = 0
  63              		@ frame_needed = 0, uses_anonymous_args = 0
  64              		@ link register save eliminated.
  65              	.LVL1:
 203:Generated_Source\PSoC5/isr_button_0.c ****     cyisraddress * ramVectorTable;
 204:Generated_Source\PSoC5/isr_button_0.c **** 
 205:Generated_Source\PSoC5/isr_button_0.c ****     ramVectorTable = (cyisraddress *) *CYINT_VECT_TABLE;
  66              		.loc 1 205 0
  67 0000 014B     		ldr	r3, .L6
  68 0002 1B68     		ldr	r3, [r3]
  69              	.LVL2:
 206:Generated_Source\PSoC5/isr_button_0.c **** 
 207:Generated_Source\PSoC5/isr_button_0.c ****     ramVectorTable[CYINT_IRQ_BASE + (uint32)isr_button_0__INTC_NUMBER] = address;
  70              		.loc 1 207 0
  71 0004 1864     		str	r0, [r3, #64]
  72 0006 7047     		bx	lr
  73              	.L7:
  74              		.align	2
  75              	.L6:
  76 0008 08ED00E0 		.word	-536810232
  77              		.cfi_endproc
  78              	.LFE4:
ARM GAS  C:\Users\CLUBRO~1\AppData\Local\Temp\ccJvmMk0.s 			page 6


  79              		.size	isr_button_0_SetVector, .-isr_button_0_SetVector
  80              		.section	.text.isr_button_0_GetVector,"ax",%progbits
  81              		.align	2
  82              		.global	isr_button_0_GetVector
  83              		.thumb
  84              		.thumb_func
  85              		.type	isr_button_0_GetVector, %function
  86              	isr_button_0_GetVector:
  87              	.LFB5:
 208:Generated_Source\PSoC5/isr_button_0.c **** }
 209:Generated_Source\PSoC5/isr_button_0.c **** 
 210:Generated_Source\PSoC5/isr_button_0.c **** 
 211:Generated_Source\PSoC5/isr_button_0.c **** /*******************************************************************************
 212:Generated_Source\PSoC5/isr_button_0.c **** * Function Name: isr_button_0_GetVector
 213:Generated_Source\PSoC5/isr_button_0.c **** ********************************************************************************
 214:Generated_Source\PSoC5/isr_button_0.c **** *
 215:Generated_Source\PSoC5/isr_button_0.c **** * Summary:
 216:Generated_Source\PSoC5/isr_button_0.c **** *   Gets the "address" of the current ISR vector for the Interrupt.
 217:Generated_Source\PSoC5/isr_button_0.c **** *
 218:Generated_Source\PSoC5/isr_button_0.c **** * Parameters:
 219:Generated_Source\PSoC5/isr_button_0.c **** *   None
 220:Generated_Source\PSoC5/isr_button_0.c **** *
 221:Generated_Source\PSoC5/isr_button_0.c **** * Return:
 222:Generated_Source\PSoC5/isr_button_0.c **** *   Address of the ISR in the interrupt vector table.
 223:Generated_Source\PSoC5/isr_button_0.c **** *
 224:Generated_Source\PSoC5/isr_button_0.c **** *******************************************************************************/
 225:Generated_Source\PSoC5/isr_button_0.c **** cyisraddress isr_button_0_GetVector(void)
 226:Generated_Source\PSoC5/isr_button_0.c **** {
  88              		.loc 1 226 0
  89              		.cfi_startproc
  90              		@ args = 0, pretend = 0, frame = 0
  91              		@ frame_needed = 0, uses_anonymous_args = 0
  92              		@ link register save eliminated.
 227:Generated_Source\PSoC5/isr_button_0.c ****     cyisraddress * ramVectorTable;
 228:Generated_Source\PSoC5/isr_button_0.c **** 
 229:Generated_Source\PSoC5/isr_button_0.c ****     ramVectorTable = (cyisraddress *) *CYINT_VECT_TABLE;
  93              		.loc 1 229 0
  94 0000 014B     		ldr	r3, .L9
  95 0002 1B68     		ldr	r3, [r3]
  96              	.LVL3:
 230:Generated_Source\PSoC5/isr_button_0.c **** 
 231:Generated_Source\PSoC5/isr_button_0.c ****     return ramVectorTable[CYINT_IRQ_BASE + (uint32)isr_button_0__INTC_NUMBER];
 232:Generated_Source\PSoC5/isr_button_0.c **** }
  97              		.loc 1 232 0
  98 0004 186C     		ldr	r0, [r3, #64]
  99 0006 7047     		bx	lr
 100              	.L10:
 101              		.align	2
 102              	.L9:
 103 0008 08ED00E0 		.word	-536810232
 104              		.cfi_endproc
 105              	.LFE5:
 106              		.size	isr_button_0_GetVector, .-isr_button_0_GetVector
 107              		.section	.text.isr_button_0_SetPriority,"ax",%progbits
 108              		.align	2
 109              		.global	isr_button_0_SetPriority
 110              		.thumb
ARM GAS  C:\Users\CLUBRO~1\AppData\Local\Temp\ccJvmMk0.s 			page 7


 111              		.thumb_func
 112              		.type	isr_button_0_SetPriority, %function
 113              	isr_button_0_SetPriority:
 114              	.LFB6:
 233:Generated_Source\PSoC5/isr_button_0.c **** 
 234:Generated_Source\PSoC5/isr_button_0.c **** 
 235:Generated_Source\PSoC5/isr_button_0.c **** /*******************************************************************************
 236:Generated_Source\PSoC5/isr_button_0.c **** * Function Name: isr_button_0_SetPriority
 237:Generated_Source\PSoC5/isr_button_0.c **** ********************************************************************************
 238:Generated_Source\PSoC5/isr_button_0.c **** *
 239:Generated_Source\PSoC5/isr_button_0.c **** * Summary:
 240:Generated_Source\PSoC5/isr_button_0.c **** *   Sets the Priority of the Interrupt. 
 241:Generated_Source\PSoC5/isr_button_0.c **** *
 242:Generated_Source\PSoC5/isr_button_0.c **** *   Note calling isr_button_0_Start or isr_button_0_StartEx will 
 243:Generated_Source\PSoC5/isr_button_0.c **** *   override any effect this API would have had. This API should only be called
 244:Generated_Source\PSoC5/isr_button_0.c **** *   after isr_button_0_Start or isr_button_0_StartEx has been called. 
 245:Generated_Source\PSoC5/isr_button_0.c **** *   To set the initial priority for the component, use the Design-Wide Resources
 246:Generated_Source\PSoC5/isr_button_0.c **** *   Interrupt Editor.
 247:Generated_Source\PSoC5/isr_button_0.c **** *
 248:Generated_Source\PSoC5/isr_button_0.c **** *   Note This API has no effect on Non-maskable interrupt NMI).
 249:Generated_Source\PSoC5/isr_button_0.c **** *
 250:Generated_Source\PSoC5/isr_button_0.c **** * Parameters:
 251:Generated_Source\PSoC5/isr_button_0.c **** *   priority: Priority of the interrupt, 0 being the highest priority
 252:Generated_Source\PSoC5/isr_button_0.c **** *             PSoC 3 and PSoC 5LP: Priority is from 0 to 7.
 253:Generated_Source\PSoC5/isr_button_0.c **** *             PSoC 4: Priority is from 0 to 3.
 254:Generated_Source\PSoC5/isr_button_0.c **** *
 255:Generated_Source\PSoC5/isr_button_0.c **** * Return:
 256:Generated_Source\PSoC5/isr_button_0.c **** *   None
 257:Generated_Source\PSoC5/isr_button_0.c **** *
 258:Generated_Source\PSoC5/isr_button_0.c **** *******************************************************************************/
 259:Generated_Source\PSoC5/isr_button_0.c **** void isr_button_0_SetPriority(uint8 priority)
 260:Generated_Source\PSoC5/isr_button_0.c **** {
 115              		.loc 1 260 0
 116              		.cfi_startproc
 117              		@ args = 0, pretend = 0, frame = 0
 118              		@ frame_needed = 0, uses_anonymous_args = 0
 119              		@ link register save eliminated.
 120              	.LVL4:
 261:Generated_Source\PSoC5/isr_button_0.c ****     *isr_button_0_INTC_PRIOR = priority << 5;
 121              		.loc 1 261 0
 122 0000 4001     		lsls	r0, r0, #5
 123              	.LVL5:
 124 0002 C0B2     		uxtb	r0, r0
 125 0004 014B     		ldr	r3, .L12
 126 0006 1870     		strb	r0, [r3]
 127 0008 7047     		bx	lr
 128              	.L13:
 129 000a 00BF     		.align	2
 130              	.L12:
 131 000c 00E400E0 		.word	-536812544
 132              		.cfi_endproc
 133              	.LFE6:
 134              		.size	isr_button_0_SetPriority, .-isr_button_0_SetPriority
 135              		.section	.text.isr_button_0_GetPriority,"ax",%progbits
 136              		.align	2
 137              		.global	isr_button_0_GetPriority
 138              		.thumb
ARM GAS  C:\Users\CLUBRO~1\AppData\Local\Temp\ccJvmMk0.s 			page 8


 139              		.thumb_func
 140              		.type	isr_button_0_GetPriority, %function
 141              	isr_button_0_GetPriority:
 142              	.LFB7:
 262:Generated_Source\PSoC5/isr_button_0.c **** }
 263:Generated_Source\PSoC5/isr_button_0.c **** 
 264:Generated_Source\PSoC5/isr_button_0.c **** 
 265:Generated_Source\PSoC5/isr_button_0.c **** /*******************************************************************************
 266:Generated_Source\PSoC5/isr_button_0.c **** * Function Name: isr_button_0_GetPriority
 267:Generated_Source\PSoC5/isr_button_0.c **** ********************************************************************************
 268:Generated_Source\PSoC5/isr_button_0.c **** *
 269:Generated_Source\PSoC5/isr_button_0.c **** * Summary:
 270:Generated_Source\PSoC5/isr_button_0.c **** *   Gets the Priority of the Interrupt.
 271:Generated_Source\PSoC5/isr_button_0.c **** *
 272:Generated_Source\PSoC5/isr_button_0.c **** * Parameters:
 273:Generated_Source\PSoC5/isr_button_0.c **** *   None
 274:Generated_Source\PSoC5/isr_button_0.c **** *
 275:Generated_Source\PSoC5/isr_button_0.c **** * Return:
 276:Generated_Source\PSoC5/isr_button_0.c **** *   Priority of the interrupt, 0 being the highest priority
 277:Generated_Source\PSoC5/isr_button_0.c **** *    PSoC 3 and PSoC 5LP: Priority is from 0 to 7.
 278:Generated_Source\PSoC5/isr_button_0.c **** *    PSoC 4: Priority is from 0 to 3.
 279:Generated_Source\PSoC5/isr_button_0.c **** *
 280:Generated_Source\PSoC5/isr_button_0.c **** *******************************************************************************/
 281:Generated_Source\PSoC5/isr_button_0.c **** uint8 isr_button_0_GetPriority(void)
 282:Generated_Source\PSoC5/isr_button_0.c **** {
 143              		.loc 1 282 0
 144              		.cfi_startproc
 145              		@ args = 0, pretend = 0, frame = 0
 146              		@ frame_needed = 0, uses_anonymous_args = 0
 147              		@ link register save eliminated.
 283:Generated_Source\PSoC5/isr_button_0.c ****     uint8 priority;
 284:Generated_Source\PSoC5/isr_button_0.c **** 
 285:Generated_Source\PSoC5/isr_button_0.c **** 
 286:Generated_Source\PSoC5/isr_button_0.c ****     priority = *isr_button_0_INTC_PRIOR >> 5;
 148              		.loc 1 286 0
 149 0000 014B     		ldr	r3, .L15
 150 0002 1878     		ldrb	r0, [r3]	@ zero_extendqisi2
 151              	.LVL6:
 287:Generated_Source\PSoC5/isr_button_0.c **** 
 288:Generated_Source\PSoC5/isr_button_0.c ****     return priority;
 289:Generated_Source\PSoC5/isr_button_0.c **** }
 152              		.loc 1 289 0
 153 0004 4009     		lsrs	r0, r0, #5
 154              	.LVL7:
 155 0006 7047     		bx	lr
 156              	.L16:
 157              		.align	2
 158              	.L15:
 159 0008 00E400E0 		.word	-536812544
 160              		.cfi_endproc
 161              	.LFE7:
 162              		.size	isr_button_0_GetPriority, .-isr_button_0_GetPriority
 163              		.section	.text.isr_button_0_Enable,"ax",%progbits
 164              		.align	2
 165              		.global	isr_button_0_Enable
 166              		.thumb
 167              		.thumb_func
ARM GAS  C:\Users\CLUBRO~1\AppData\Local\Temp\ccJvmMk0.s 			page 9


 168              		.type	isr_button_0_Enable, %function
 169              	isr_button_0_Enable:
 170              	.LFB8:
 290:Generated_Source\PSoC5/isr_button_0.c **** 
 291:Generated_Source\PSoC5/isr_button_0.c **** 
 292:Generated_Source\PSoC5/isr_button_0.c **** /*******************************************************************************
 293:Generated_Source\PSoC5/isr_button_0.c **** * Function Name: isr_button_0_Enable
 294:Generated_Source\PSoC5/isr_button_0.c **** ********************************************************************************
 295:Generated_Source\PSoC5/isr_button_0.c **** *
 296:Generated_Source\PSoC5/isr_button_0.c **** * Summary:
 297:Generated_Source\PSoC5/isr_button_0.c **** *   Enables the interrupt to the interrupt controller. Do not call this function
 298:Generated_Source\PSoC5/isr_button_0.c **** *   unless ISR_Start() has been called or the functionality of the ISR_Start() 
 299:Generated_Source\PSoC5/isr_button_0.c **** *   function, which sets the vector and the priority, has been called.
 300:Generated_Source\PSoC5/isr_button_0.c **** *
 301:Generated_Source\PSoC5/isr_button_0.c **** * Parameters:
 302:Generated_Source\PSoC5/isr_button_0.c **** *   None
 303:Generated_Source\PSoC5/isr_button_0.c **** *
 304:Generated_Source\PSoC5/isr_button_0.c **** * Return:
 305:Generated_Source\PSoC5/isr_button_0.c **** *   None
 306:Generated_Source\PSoC5/isr_button_0.c **** *
 307:Generated_Source\PSoC5/isr_button_0.c **** *******************************************************************************/
 308:Generated_Source\PSoC5/isr_button_0.c **** void isr_button_0_Enable(void)
 309:Generated_Source\PSoC5/isr_button_0.c **** {
 171              		.loc 1 309 0
 172              		.cfi_startproc
 173              		@ args = 0, pretend = 0, frame = 0
 174              		@ frame_needed = 0, uses_anonymous_args = 0
 175              		@ link register save eliminated.
 310:Generated_Source\PSoC5/isr_button_0.c ****     /* Enable the general interrupt. */
 311:Generated_Source\PSoC5/isr_button_0.c ****     *isr_button_0_INTC_SET_EN = isr_button_0__INTC_MASK;
 176              		.loc 1 311 0
 177 0000 0122     		movs	r2, #1
 178 0002 014B     		ldr	r3, .L18
 179 0004 1A60     		str	r2, [r3]
 180 0006 7047     		bx	lr
 181              	.L19:
 182              		.align	2
 183              	.L18:
 184 0008 00E100E0 		.word	-536813312
 185              		.cfi_endproc
 186              	.LFE8:
 187              		.size	isr_button_0_Enable, .-isr_button_0_Enable
 188              		.section	.text.isr_button_0_GetState,"ax",%progbits
 189              		.align	2
 190              		.global	isr_button_0_GetState
 191              		.thumb
 192              		.thumb_func
 193              		.type	isr_button_0_GetState, %function
 194              	isr_button_0_GetState:
 195              	.LFB9:
 312:Generated_Source\PSoC5/isr_button_0.c **** }
 313:Generated_Source\PSoC5/isr_button_0.c **** 
 314:Generated_Source\PSoC5/isr_button_0.c **** 
 315:Generated_Source\PSoC5/isr_button_0.c **** /*******************************************************************************
 316:Generated_Source\PSoC5/isr_button_0.c **** * Function Name: isr_button_0_GetState
 317:Generated_Source\PSoC5/isr_button_0.c **** ********************************************************************************
 318:Generated_Source\PSoC5/isr_button_0.c **** *
ARM GAS  C:\Users\CLUBRO~1\AppData\Local\Temp\ccJvmMk0.s 			page 10


 319:Generated_Source\PSoC5/isr_button_0.c **** * Summary:
 320:Generated_Source\PSoC5/isr_button_0.c **** *   Gets the state (enabled, disabled) of the Interrupt.
 321:Generated_Source\PSoC5/isr_button_0.c **** *
 322:Generated_Source\PSoC5/isr_button_0.c **** * Parameters:
 323:Generated_Source\PSoC5/isr_button_0.c **** *   None
 324:Generated_Source\PSoC5/isr_button_0.c **** *
 325:Generated_Source\PSoC5/isr_button_0.c **** * Return:
 326:Generated_Source\PSoC5/isr_button_0.c **** *   1 if enabled, 0 if disabled.
 327:Generated_Source\PSoC5/isr_button_0.c **** *
 328:Generated_Source\PSoC5/isr_button_0.c **** *******************************************************************************/
 329:Generated_Source\PSoC5/isr_button_0.c **** uint8 isr_button_0_GetState(void)
 330:Generated_Source\PSoC5/isr_button_0.c **** {
 196              		.loc 1 330 0
 197              		.cfi_startproc
 198              		@ args = 0, pretend = 0, frame = 0
 199              		@ frame_needed = 0, uses_anonymous_args = 0
 200              		@ link register save eliminated.
 331:Generated_Source\PSoC5/isr_button_0.c ****     /* Get the state of the general interrupt. */
 332:Generated_Source\PSoC5/isr_button_0.c ****     return ((*isr_button_0_INTC_SET_EN & (uint32)isr_button_0__INTC_MASK) != 0u) ? 1u:0u;
 201              		.loc 1 332 0
 202 0000 024B     		ldr	r3, .L21
 203 0002 1868     		ldr	r0, [r3]
 333:Generated_Source\PSoC5/isr_button_0.c **** }
 204              		.loc 1 333 0
 205 0004 00F00100 		and	r0, r0, #1
 206 0008 7047     		bx	lr
 207              	.L22:
 208 000a 00BF     		.align	2
 209              	.L21:
 210 000c 00E100E0 		.word	-536813312
 211              		.cfi_endproc
 212              	.LFE9:
 213              		.size	isr_button_0_GetState, .-isr_button_0_GetState
 214              		.section	.text.isr_button_0_Disable,"ax",%progbits
 215              		.align	2
 216              		.global	isr_button_0_Disable
 217              		.thumb
 218              		.thumb_func
 219              		.type	isr_button_0_Disable, %function
 220              	isr_button_0_Disable:
 221              	.LFB10:
 334:Generated_Source\PSoC5/isr_button_0.c **** 
 335:Generated_Source\PSoC5/isr_button_0.c **** 
 336:Generated_Source\PSoC5/isr_button_0.c **** /*******************************************************************************
 337:Generated_Source\PSoC5/isr_button_0.c **** * Function Name: isr_button_0_Disable
 338:Generated_Source\PSoC5/isr_button_0.c **** ********************************************************************************
 339:Generated_Source\PSoC5/isr_button_0.c **** *
 340:Generated_Source\PSoC5/isr_button_0.c **** * Summary:
 341:Generated_Source\PSoC5/isr_button_0.c **** *   Disables the Interrupt in the interrupt controller.
 342:Generated_Source\PSoC5/isr_button_0.c **** *
 343:Generated_Source\PSoC5/isr_button_0.c **** * Parameters:
 344:Generated_Source\PSoC5/isr_button_0.c **** *   None
 345:Generated_Source\PSoC5/isr_button_0.c **** *
 346:Generated_Source\PSoC5/isr_button_0.c **** * Return:
 347:Generated_Source\PSoC5/isr_button_0.c **** *   None
 348:Generated_Source\PSoC5/isr_button_0.c **** *
 349:Generated_Source\PSoC5/isr_button_0.c **** *******************************************************************************/
ARM GAS  C:\Users\CLUBRO~1\AppData\Local\Temp\ccJvmMk0.s 			page 11


 350:Generated_Source\PSoC5/isr_button_0.c **** void isr_button_0_Disable(void)
 351:Generated_Source\PSoC5/isr_button_0.c **** {
 222              		.loc 1 351 0
 223              		.cfi_startproc
 224              		@ args = 0, pretend = 0, frame = 0
 225              		@ frame_needed = 0, uses_anonymous_args = 0
 226              		@ link register save eliminated.
 352:Generated_Source\PSoC5/isr_button_0.c ****     /* Disable the general interrupt. */
 353:Generated_Source\PSoC5/isr_button_0.c ****     *isr_button_0_INTC_CLR_EN = isr_button_0__INTC_MASK;
 227              		.loc 1 353 0
 228 0000 0122     		movs	r2, #1
 229 0002 014B     		ldr	r3, .L24
 230 0004 1A60     		str	r2, [r3]
 231 0006 7047     		bx	lr
 232              	.L25:
 233              		.align	2
 234              	.L24:
 235 0008 80E100E0 		.word	-536813184
 236              		.cfi_endproc
 237              	.LFE10:
 238              		.size	isr_button_0_Disable, .-isr_button_0_Disable
 239              		.section	.text.isr_button_0_Start,"ax",%progbits
 240              		.align	2
 241              		.global	isr_button_0_Start
 242              		.thumb
 243              		.thumb_func
 244              		.type	isr_button_0_Start, %function
 245              	isr_button_0_Start:
 246              	.LFB0:
  62:Generated_Source\PSoC5/isr_button_0.c ****     /* For all we know the interrupt is active. */
 247              		.loc 1 62 0
 248              		.cfi_startproc
 249              		@ args = 0, pretend = 0, frame = 0
 250              		@ frame_needed = 0, uses_anonymous_args = 0
 251 0000 08B5     		push	{r3, lr}
 252              		.cfi_def_cfa_offset 8
 253              		.cfi_offset 3, -8
 254              		.cfi_offset 14, -4
  64:Generated_Source\PSoC5/isr_button_0.c **** 
 255              		.loc 1 64 0
 256 0002 FFF7FEFF 		bl	isr_button_0_Disable
 257              	.LVL8:
  67:Generated_Source\PSoC5/isr_button_0.c **** 
 258              		.loc 1 67 0
 259 0006 0448     		ldr	r0, .L28
 260 0008 FFF7FEFF 		bl	isr_button_0_SetVector
 261              	.LVL9:
  70:Generated_Source\PSoC5/isr_button_0.c **** 
 262              		.loc 1 70 0
 263 000c 0720     		movs	r0, #7
 264 000e FFF7FEFF 		bl	isr_button_0_SetPriority
 265              	.LVL10:
  73:Generated_Source\PSoC5/isr_button_0.c **** }
 266              		.loc 1 73 0
 267 0012 FFF7FEFF 		bl	isr_button_0_Enable
 268              	.LVL11:
 269 0016 08BD     		pop	{r3, pc}
ARM GAS  C:\Users\CLUBRO~1\AppData\Local\Temp\ccJvmMk0.s 			page 12


 270              	.L29:
 271              		.align	2
 272              	.L28:
 273 0018 00000000 		.word	isr_button_0_Interrupt
 274              		.cfi_endproc
 275              	.LFE0:
 276              		.size	isr_button_0_Start, .-isr_button_0_Start
 277              		.section	.text.isr_button_0_StartEx,"ax",%progbits
 278              		.align	2
 279              		.global	isr_button_0_StartEx
 280              		.thumb
 281              		.thumb_func
 282              		.type	isr_button_0_StartEx, %function
 283              	isr_button_0_StartEx:
 284              	.LFB1:
 105:Generated_Source\PSoC5/isr_button_0.c ****     /* For all we know the interrupt is active. */
 285              		.loc 1 105 0
 286              		.cfi_startproc
 287              		@ args = 0, pretend = 0, frame = 0
 288              		@ frame_needed = 0, uses_anonymous_args = 0
 289              	.LVL12:
 290 0000 10B5     		push	{r4, lr}
 291              		.cfi_def_cfa_offset 8
 292              		.cfi_offset 4, -8
 293              		.cfi_offset 14, -4
 294 0002 0446     		mov	r4, r0
 107:Generated_Source\PSoC5/isr_button_0.c **** 
 295              		.loc 1 107 0
 296 0004 FFF7FEFF 		bl	isr_button_0_Disable
 297              	.LVL13:
 110:Generated_Source\PSoC5/isr_button_0.c **** 
 298              		.loc 1 110 0
 299 0008 2046     		mov	r0, r4
 300 000a FFF7FEFF 		bl	isr_button_0_SetVector
 301              	.LVL14:
 113:Generated_Source\PSoC5/isr_button_0.c **** 
 302              		.loc 1 113 0
 303 000e 0720     		movs	r0, #7
 304 0010 FFF7FEFF 		bl	isr_button_0_SetPriority
 305              	.LVL15:
 116:Generated_Source\PSoC5/isr_button_0.c **** }
 306              		.loc 1 116 0
 307 0014 FFF7FEFF 		bl	isr_button_0_Enable
 308              	.LVL16:
 309 0018 10BD     		pop	{r4, pc}
 310              		.cfi_endproc
 311              	.LFE1:
 312              		.size	isr_button_0_StartEx, .-isr_button_0_StartEx
 313 001a 00BF     		.section	.text.isr_button_0_Stop,"ax",%progbits
 314              		.align	2
 315              		.global	isr_button_0_Stop
 316              		.thumb
 317              		.thumb_func
 318              		.type	isr_button_0_Stop, %function
 319              	isr_button_0_Stop:
 320              	.LFB2:
 135:Generated_Source\PSoC5/isr_button_0.c ****     /* Disable this interrupt. */
ARM GAS  C:\Users\CLUBRO~1\AppData\Local\Temp\ccJvmMk0.s 			page 13


 321              		.loc 1 135 0
 322              		.cfi_startproc
 323              		@ args = 0, pretend = 0, frame = 0
 324              		@ frame_needed = 0, uses_anonymous_args = 0
 325 0000 08B5     		push	{r3, lr}
 326              		.cfi_def_cfa_offset 8
 327              		.cfi_offset 3, -8
 328              		.cfi_offset 14, -4
 137:Generated_Source\PSoC5/isr_button_0.c **** 
 329              		.loc 1 137 0
 330 0002 FFF7FEFF 		bl	isr_button_0_Disable
 331              	.LVL17:
 140:Generated_Source\PSoC5/isr_button_0.c **** }
 332              		.loc 1 140 0
 333 0006 0248     		ldr	r0, .L34
 334 0008 FFF7FEFF 		bl	isr_button_0_SetVector
 335              	.LVL18:
 336 000c 08BD     		pop	{r3, pc}
 337              	.L35:
 338 000e 00BF     		.align	2
 339              	.L34:
 340 0010 00000000 		.word	IntDefaultHandler
 341              		.cfi_endproc
 342              	.LFE2:
 343              		.size	isr_button_0_Stop, .-isr_button_0_Stop
 344              		.section	.text.isr_button_0_SetPending,"ax",%progbits
 345              		.align	2
 346              		.global	isr_button_0_SetPending
 347              		.thumb
 348              		.thumb_func
 349              		.type	isr_button_0_SetPending, %function
 350              	isr_button_0_SetPending:
 351              	.LFB11:
 354:Generated_Source\PSoC5/isr_button_0.c **** }
 355:Generated_Source\PSoC5/isr_button_0.c **** 
 356:Generated_Source\PSoC5/isr_button_0.c **** 
 357:Generated_Source\PSoC5/isr_button_0.c **** /*******************************************************************************
 358:Generated_Source\PSoC5/isr_button_0.c **** * Function Name: isr_button_0_SetPending
 359:Generated_Source\PSoC5/isr_button_0.c **** ********************************************************************************
 360:Generated_Source\PSoC5/isr_button_0.c **** *
 361:Generated_Source\PSoC5/isr_button_0.c **** * Summary:
 362:Generated_Source\PSoC5/isr_button_0.c **** *   Causes the Interrupt to enter the pending state, a software method of
 363:Generated_Source\PSoC5/isr_button_0.c **** *   generating the interrupt.
 364:Generated_Source\PSoC5/isr_button_0.c **** *
 365:Generated_Source\PSoC5/isr_button_0.c **** * Parameters:
 366:Generated_Source\PSoC5/isr_button_0.c **** *   None
 367:Generated_Source\PSoC5/isr_button_0.c **** *
 368:Generated_Source\PSoC5/isr_button_0.c **** * Return:
 369:Generated_Source\PSoC5/isr_button_0.c **** *   None
 370:Generated_Source\PSoC5/isr_button_0.c **** *
 371:Generated_Source\PSoC5/isr_button_0.c **** * Side Effects:
 372:Generated_Source\PSoC5/isr_button_0.c **** *   If interrupts are enabled and the interrupt is set up properly, the ISR is
 373:Generated_Source\PSoC5/isr_button_0.c **** *   entered (depending on the priority of this interrupt and other pending 
 374:Generated_Source\PSoC5/isr_button_0.c **** *   interrupts).
 375:Generated_Source\PSoC5/isr_button_0.c **** *
 376:Generated_Source\PSoC5/isr_button_0.c **** *******************************************************************************/
 377:Generated_Source\PSoC5/isr_button_0.c **** void isr_button_0_SetPending(void)
ARM GAS  C:\Users\CLUBRO~1\AppData\Local\Temp\ccJvmMk0.s 			page 14


 378:Generated_Source\PSoC5/isr_button_0.c **** {
 352              		.loc 1 378 0
 353              		.cfi_startproc
 354              		@ args = 0, pretend = 0, frame = 0
 355              		@ frame_needed = 0, uses_anonymous_args = 0
 356              		@ link register save eliminated.
 379:Generated_Source\PSoC5/isr_button_0.c ****     *isr_button_0_INTC_SET_PD = isr_button_0__INTC_MASK;
 357              		.loc 1 379 0
 358 0000 0122     		movs	r2, #1
 359 0002 014B     		ldr	r3, .L37
 360 0004 1A60     		str	r2, [r3]
 361 0006 7047     		bx	lr
 362              	.L38:
 363              		.align	2
 364              	.L37:
 365 0008 00E200E0 		.word	-536813056
 366              		.cfi_endproc
 367              	.LFE11:
 368              		.size	isr_button_0_SetPending, .-isr_button_0_SetPending
 369              		.section	.text.isr_button_0_ClearPending,"ax",%progbits
 370              		.align	2
 371              		.global	isr_button_0_ClearPending
 372              		.thumb
 373              		.thumb_func
 374              		.type	isr_button_0_ClearPending, %function
 375              	isr_button_0_ClearPending:
 376              	.LFB12:
 380:Generated_Source\PSoC5/isr_button_0.c **** }
 381:Generated_Source\PSoC5/isr_button_0.c **** 
 382:Generated_Source\PSoC5/isr_button_0.c **** 
 383:Generated_Source\PSoC5/isr_button_0.c **** /*******************************************************************************
 384:Generated_Source\PSoC5/isr_button_0.c **** * Function Name: isr_button_0_ClearPending
 385:Generated_Source\PSoC5/isr_button_0.c **** ********************************************************************************
 386:Generated_Source\PSoC5/isr_button_0.c **** *
 387:Generated_Source\PSoC5/isr_button_0.c **** * Summary:
 388:Generated_Source\PSoC5/isr_button_0.c **** *   Clears a pending interrupt in the interrupt controller.
 389:Generated_Source\PSoC5/isr_button_0.c **** *
 390:Generated_Source\PSoC5/isr_button_0.c **** *   Note Some interrupt sources are clear-on-read and require the block 
 391:Generated_Source\PSoC5/isr_button_0.c **** *   interrupt/status register to be read/cleared with the appropriate block API 
 392:Generated_Source\PSoC5/isr_button_0.c **** *   (GPIO, UART, and so on). Otherwise the ISR will continue to remain in 
 393:Generated_Source\PSoC5/isr_button_0.c **** *   pending state even though the interrupt itself is cleared using this API.
 394:Generated_Source\PSoC5/isr_button_0.c **** *
 395:Generated_Source\PSoC5/isr_button_0.c **** * Parameters:
 396:Generated_Source\PSoC5/isr_button_0.c **** *   None
 397:Generated_Source\PSoC5/isr_button_0.c **** *
 398:Generated_Source\PSoC5/isr_button_0.c **** * Return:
 399:Generated_Source\PSoC5/isr_button_0.c **** *   None
 400:Generated_Source\PSoC5/isr_button_0.c **** *
 401:Generated_Source\PSoC5/isr_button_0.c **** *******************************************************************************/
 402:Generated_Source\PSoC5/isr_button_0.c **** void isr_button_0_ClearPending(void)
 403:Generated_Source\PSoC5/isr_button_0.c **** {
 377              		.loc 1 403 0
 378              		.cfi_startproc
 379              		@ args = 0, pretend = 0, frame = 0
 380              		@ frame_needed = 0, uses_anonymous_args = 0
 381              		@ link register save eliminated.
 404:Generated_Source\PSoC5/isr_button_0.c ****     *isr_button_0_INTC_CLR_PD = isr_button_0__INTC_MASK;
ARM GAS  C:\Users\CLUBRO~1\AppData\Local\Temp\ccJvmMk0.s 			page 15


 382              		.loc 1 404 0
 383 0000 0122     		movs	r2, #1
 384 0002 014B     		ldr	r3, .L40
 385 0004 1A60     		str	r2, [r3]
 386 0006 7047     		bx	lr
 387              	.L41:
 388              		.align	2
 389              	.L40:
 390 0008 80E200E0 		.word	-536812928
 391              		.cfi_endproc
 392              	.LFE12:
 393              		.size	isr_button_0_ClearPending, .-isr_button_0_ClearPending
 394              		.text
 395              	.Letext0:
 396              		.file 2 "Generated_Source\\PSoC5/cytypes.h"
 397              		.file 3 "Generated_Source\\PSoC5/CyLib.h"