ARM GAS  C:\Users\etudiant\AppData\Local\Temp\ccW76VFX.s 			page 1


   1              		.syntax unified
   2              		.cpu cortex-m3
   3              		.fpu softvfp
   4              		.eabi_attribute 20, 1
   5              		.eabi_attribute 21, 1
   6              		.eabi_attribute 23, 3
   7              		.eabi_attribute 24, 1
   8              		.eabi_attribute 25, 1
   9              		.eabi_attribute 26, 1
  10              		.eabi_attribute 30, 1
  11              		.eabi_attribute 34, 1
  12              		.eabi_attribute 18, 4
  13              		.thumb
  14              		.syntax unified
  15              		.file	"ISR_Bouton_0.c"
  16              		.text
  17              	.Ltext0:
  18              		.cfi_sections	.debug_frame
  19              		.section	.text.ISR_Bouton_0_Interrupt,"ax",%progbits
  20              		.align	2
  21              		.global	ISR_Bouton_0_Interrupt
  22              		.thumb
  23              		.thumb_func
  24              		.type	ISR_Bouton_0_Interrupt, %function
  25              	ISR_Bouton_0_Interrupt:
  26              	.LFB3:
  27              		.file 1 "Generated_Source\\PSoC5\\ISR_Bouton_0.c"
   1:Generated_Source\PSoC5/ISR_Bouton_0.c **** /*******************************************************************************
   2:Generated_Source\PSoC5/ISR_Bouton_0.c **** * File Name: ISR_Bouton_0.c  
   3:Generated_Source\PSoC5/ISR_Bouton_0.c **** * Version 1.70
   4:Generated_Source\PSoC5/ISR_Bouton_0.c **** *
   5:Generated_Source\PSoC5/ISR_Bouton_0.c **** *  Description:
   6:Generated_Source\PSoC5/ISR_Bouton_0.c **** *   API for controlling the state of an interrupt.
   7:Generated_Source\PSoC5/ISR_Bouton_0.c **** *
   8:Generated_Source\PSoC5/ISR_Bouton_0.c **** *
   9:Generated_Source\PSoC5/ISR_Bouton_0.c **** *  Note:
  10:Generated_Source\PSoC5/ISR_Bouton_0.c **** *
  11:Generated_Source\PSoC5/ISR_Bouton_0.c **** ********************************************************************************
  12:Generated_Source\PSoC5/ISR_Bouton_0.c **** * Copyright 2008-2015, Cypress Semiconductor Corporation.  All rights reserved.
  13:Generated_Source\PSoC5/ISR_Bouton_0.c **** * You may use this file only in accordance with the license, terms, conditions, 
  14:Generated_Source\PSoC5/ISR_Bouton_0.c **** * disclaimers, and limitations in the end user license agreement accompanying 
  15:Generated_Source\PSoC5/ISR_Bouton_0.c **** * the software package with which this file was provided.
  16:Generated_Source\PSoC5/ISR_Bouton_0.c **** *******************************************************************************/
  17:Generated_Source\PSoC5/ISR_Bouton_0.c **** 
  18:Generated_Source\PSoC5/ISR_Bouton_0.c **** 
  19:Generated_Source\PSoC5/ISR_Bouton_0.c **** #include <cydevice_trm.h>
  20:Generated_Source\PSoC5/ISR_Bouton_0.c **** #include <CyLib.h>
  21:Generated_Source\PSoC5/ISR_Bouton_0.c **** #include <ISR_Bouton_0.h>
  22:Generated_Source\PSoC5/ISR_Bouton_0.c **** #include "cyapicallbacks.h"
  23:Generated_Source\PSoC5/ISR_Bouton_0.c **** 
  24:Generated_Source\PSoC5/ISR_Bouton_0.c **** #if !defined(ISR_Bouton_0__REMOVED) /* Check for removal by optimization */
  25:Generated_Source\PSoC5/ISR_Bouton_0.c **** 
  26:Generated_Source\PSoC5/ISR_Bouton_0.c **** /*******************************************************************************
  27:Generated_Source\PSoC5/ISR_Bouton_0.c **** *  Place your includes, defines and code here 
  28:Generated_Source\PSoC5/ISR_Bouton_0.c **** ********************************************************************************/
  29:Generated_Source\PSoC5/ISR_Bouton_0.c **** /* `#START ISR_Bouton_0_intc` */
  30:Generated_Source\PSoC5/ISR_Bouton_0.c ****     
ARM GAS  C:\Users\etudiant\AppData\Local\Temp\ccW76VFX.s 			page 2


  31:Generated_Source\PSoC5/ISR_Bouton_0.c ****     extern uint8 Flag_Rotary_M;
  32:Generated_Source\PSoC5/ISR_Bouton_0.c **** 
  33:Generated_Source\PSoC5/ISR_Bouton_0.c **** /* `#END` */
  34:Generated_Source\PSoC5/ISR_Bouton_0.c **** 
  35:Generated_Source\PSoC5/ISR_Bouton_0.c **** #ifndef CYINT_IRQ_BASE
  36:Generated_Source\PSoC5/ISR_Bouton_0.c **** #define CYINT_IRQ_BASE      16
  37:Generated_Source\PSoC5/ISR_Bouton_0.c **** #endif /* CYINT_IRQ_BASE */
  38:Generated_Source\PSoC5/ISR_Bouton_0.c **** #ifndef CYINT_VECT_TABLE
  39:Generated_Source\PSoC5/ISR_Bouton_0.c **** #define CYINT_VECT_TABLE    ((cyisraddress **) CYREG_NVIC_VECT_OFFSET)
  40:Generated_Source\PSoC5/ISR_Bouton_0.c **** #endif /* CYINT_VECT_TABLE */
  41:Generated_Source\PSoC5/ISR_Bouton_0.c **** 
  42:Generated_Source\PSoC5/ISR_Bouton_0.c **** /* Declared in startup, used to set unused interrupts to. */
  43:Generated_Source\PSoC5/ISR_Bouton_0.c **** CY_ISR_PROTO(IntDefaultHandler);
  44:Generated_Source\PSoC5/ISR_Bouton_0.c **** 
  45:Generated_Source\PSoC5/ISR_Bouton_0.c **** 
  46:Generated_Source\PSoC5/ISR_Bouton_0.c **** /*******************************************************************************
  47:Generated_Source\PSoC5/ISR_Bouton_0.c **** * Function Name: ISR_Bouton_0_Start
  48:Generated_Source\PSoC5/ISR_Bouton_0.c **** ********************************************************************************
  49:Generated_Source\PSoC5/ISR_Bouton_0.c **** *
  50:Generated_Source\PSoC5/ISR_Bouton_0.c **** * Summary:
  51:Generated_Source\PSoC5/ISR_Bouton_0.c **** *  Set up the interrupt and enable it. This function disables the interrupt, 
  52:Generated_Source\PSoC5/ISR_Bouton_0.c **** *  sets the default interrupt vector, sets the priority from the value in the
  53:Generated_Source\PSoC5/ISR_Bouton_0.c **** *  Design Wide Resources Interrupt Editor, then enables the interrupt to the 
  54:Generated_Source\PSoC5/ISR_Bouton_0.c **** *  interrupt controller.
  55:Generated_Source\PSoC5/ISR_Bouton_0.c **** *
  56:Generated_Source\PSoC5/ISR_Bouton_0.c **** * Parameters:  
  57:Generated_Source\PSoC5/ISR_Bouton_0.c **** *   None
  58:Generated_Source\PSoC5/ISR_Bouton_0.c **** *
  59:Generated_Source\PSoC5/ISR_Bouton_0.c **** * Return:
  60:Generated_Source\PSoC5/ISR_Bouton_0.c **** *   None
  61:Generated_Source\PSoC5/ISR_Bouton_0.c **** *
  62:Generated_Source\PSoC5/ISR_Bouton_0.c **** *******************************************************************************/
  63:Generated_Source\PSoC5/ISR_Bouton_0.c **** void ISR_Bouton_0_Start(void)
  64:Generated_Source\PSoC5/ISR_Bouton_0.c **** {
  65:Generated_Source\PSoC5/ISR_Bouton_0.c ****     /* For all we know the interrupt is active. */
  66:Generated_Source\PSoC5/ISR_Bouton_0.c ****     ISR_Bouton_0_Disable();
  67:Generated_Source\PSoC5/ISR_Bouton_0.c **** 
  68:Generated_Source\PSoC5/ISR_Bouton_0.c ****     /* Set the ISR to point to the ISR_Bouton_0 Interrupt. */
  69:Generated_Source\PSoC5/ISR_Bouton_0.c ****     ISR_Bouton_0_SetVector(&ISR_Bouton_0_Interrupt);
  70:Generated_Source\PSoC5/ISR_Bouton_0.c **** 
  71:Generated_Source\PSoC5/ISR_Bouton_0.c ****     /* Set the priority. */
  72:Generated_Source\PSoC5/ISR_Bouton_0.c ****     ISR_Bouton_0_SetPriority((uint8)ISR_Bouton_0_INTC_PRIOR_NUMBER);
  73:Generated_Source\PSoC5/ISR_Bouton_0.c **** 
  74:Generated_Source\PSoC5/ISR_Bouton_0.c ****     /* Enable it. */
  75:Generated_Source\PSoC5/ISR_Bouton_0.c ****     ISR_Bouton_0_Enable();
  76:Generated_Source\PSoC5/ISR_Bouton_0.c **** }
  77:Generated_Source\PSoC5/ISR_Bouton_0.c **** 
  78:Generated_Source\PSoC5/ISR_Bouton_0.c **** 
  79:Generated_Source\PSoC5/ISR_Bouton_0.c **** /*******************************************************************************
  80:Generated_Source\PSoC5/ISR_Bouton_0.c **** * Function Name: ISR_Bouton_0_StartEx
  81:Generated_Source\PSoC5/ISR_Bouton_0.c **** ********************************************************************************
  82:Generated_Source\PSoC5/ISR_Bouton_0.c **** *
  83:Generated_Source\PSoC5/ISR_Bouton_0.c **** * Summary:
  84:Generated_Source\PSoC5/ISR_Bouton_0.c **** *  Sets up the interrupt and enables it. This function disables the interrupt,
  85:Generated_Source\PSoC5/ISR_Bouton_0.c **** *  sets the interrupt vector based on the address passed in, sets the priority 
  86:Generated_Source\PSoC5/ISR_Bouton_0.c **** *  from the value in the Design Wide Resources Interrupt Editor, then enables 
  87:Generated_Source\PSoC5/ISR_Bouton_0.c **** *  the interrupt to the interrupt controller.
ARM GAS  C:\Users\etudiant\AppData\Local\Temp\ccW76VFX.s 			page 3


  88:Generated_Source\PSoC5/ISR_Bouton_0.c **** *  
  89:Generated_Source\PSoC5/ISR_Bouton_0.c **** *  When defining ISR functions, the CY_ISR and CY_ISR_PROTO macros should be 
  90:Generated_Source\PSoC5/ISR_Bouton_0.c **** *  used to provide consistent definition across compilers:
  91:Generated_Source\PSoC5/ISR_Bouton_0.c **** *  
  92:Generated_Source\PSoC5/ISR_Bouton_0.c **** *  Function definition example:
  93:Generated_Source\PSoC5/ISR_Bouton_0.c **** *   CY_ISR(MyISR)
  94:Generated_Source\PSoC5/ISR_Bouton_0.c **** *   {
  95:Generated_Source\PSoC5/ISR_Bouton_0.c **** *   }
  96:Generated_Source\PSoC5/ISR_Bouton_0.c **** *   Function prototype example:
  97:Generated_Source\PSoC5/ISR_Bouton_0.c **** *   CY_ISR_PROTO(MyISR);
  98:Generated_Source\PSoC5/ISR_Bouton_0.c **** *
  99:Generated_Source\PSoC5/ISR_Bouton_0.c **** * Parameters:  
 100:Generated_Source\PSoC5/ISR_Bouton_0.c **** *   address: Address of the ISR to set in the interrupt vector table.
 101:Generated_Source\PSoC5/ISR_Bouton_0.c **** *
 102:Generated_Source\PSoC5/ISR_Bouton_0.c **** * Return:
 103:Generated_Source\PSoC5/ISR_Bouton_0.c **** *   None
 104:Generated_Source\PSoC5/ISR_Bouton_0.c **** *
 105:Generated_Source\PSoC5/ISR_Bouton_0.c **** *******************************************************************************/
 106:Generated_Source\PSoC5/ISR_Bouton_0.c **** void ISR_Bouton_0_StartEx(cyisraddress address)
 107:Generated_Source\PSoC5/ISR_Bouton_0.c **** {
 108:Generated_Source\PSoC5/ISR_Bouton_0.c ****     /* For all we know the interrupt is active. */
 109:Generated_Source\PSoC5/ISR_Bouton_0.c ****     ISR_Bouton_0_Disable();
 110:Generated_Source\PSoC5/ISR_Bouton_0.c **** 
 111:Generated_Source\PSoC5/ISR_Bouton_0.c ****     /* Set the ISR to point to the ISR_Bouton_0 Interrupt. */
 112:Generated_Source\PSoC5/ISR_Bouton_0.c ****     ISR_Bouton_0_SetVector(address);
 113:Generated_Source\PSoC5/ISR_Bouton_0.c **** 
 114:Generated_Source\PSoC5/ISR_Bouton_0.c ****     /* Set the priority. */
 115:Generated_Source\PSoC5/ISR_Bouton_0.c ****     ISR_Bouton_0_SetPriority((uint8)ISR_Bouton_0_INTC_PRIOR_NUMBER);
 116:Generated_Source\PSoC5/ISR_Bouton_0.c **** 
 117:Generated_Source\PSoC5/ISR_Bouton_0.c ****     /* Enable it. */
 118:Generated_Source\PSoC5/ISR_Bouton_0.c ****     ISR_Bouton_0_Enable();
 119:Generated_Source\PSoC5/ISR_Bouton_0.c **** }
 120:Generated_Source\PSoC5/ISR_Bouton_0.c **** 
 121:Generated_Source\PSoC5/ISR_Bouton_0.c **** 
 122:Generated_Source\PSoC5/ISR_Bouton_0.c **** /*******************************************************************************
 123:Generated_Source\PSoC5/ISR_Bouton_0.c **** * Function Name: ISR_Bouton_0_Stop
 124:Generated_Source\PSoC5/ISR_Bouton_0.c **** ********************************************************************************
 125:Generated_Source\PSoC5/ISR_Bouton_0.c **** *
 126:Generated_Source\PSoC5/ISR_Bouton_0.c **** * Summary:
 127:Generated_Source\PSoC5/ISR_Bouton_0.c **** *   Disables and removes the interrupt.
 128:Generated_Source\PSoC5/ISR_Bouton_0.c **** *
 129:Generated_Source\PSoC5/ISR_Bouton_0.c **** * Parameters:  
 130:Generated_Source\PSoC5/ISR_Bouton_0.c **** *   None
 131:Generated_Source\PSoC5/ISR_Bouton_0.c **** *
 132:Generated_Source\PSoC5/ISR_Bouton_0.c **** * Return:
 133:Generated_Source\PSoC5/ISR_Bouton_0.c **** *   None
 134:Generated_Source\PSoC5/ISR_Bouton_0.c **** *
 135:Generated_Source\PSoC5/ISR_Bouton_0.c **** *******************************************************************************/
 136:Generated_Source\PSoC5/ISR_Bouton_0.c **** void ISR_Bouton_0_Stop(void)
 137:Generated_Source\PSoC5/ISR_Bouton_0.c **** {
 138:Generated_Source\PSoC5/ISR_Bouton_0.c ****     /* Disable this interrupt. */
 139:Generated_Source\PSoC5/ISR_Bouton_0.c ****     ISR_Bouton_0_Disable();
 140:Generated_Source\PSoC5/ISR_Bouton_0.c **** 
 141:Generated_Source\PSoC5/ISR_Bouton_0.c ****     /* Set the ISR to point to the passive one. */
 142:Generated_Source\PSoC5/ISR_Bouton_0.c ****     ISR_Bouton_0_SetVector(&IntDefaultHandler);
 143:Generated_Source\PSoC5/ISR_Bouton_0.c **** }
 144:Generated_Source\PSoC5/ISR_Bouton_0.c **** 
ARM GAS  C:\Users\etudiant\AppData\Local\Temp\ccW76VFX.s 			page 4


 145:Generated_Source\PSoC5/ISR_Bouton_0.c **** 
 146:Generated_Source\PSoC5/ISR_Bouton_0.c **** /*******************************************************************************
 147:Generated_Source\PSoC5/ISR_Bouton_0.c **** * Function Name: ISR_Bouton_0_Interrupt
 148:Generated_Source\PSoC5/ISR_Bouton_0.c **** ********************************************************************************
 149:Generated_Source\PSoC5/ISR_Bouton_0.c **** *
 150:Generated_Source\PSoC5/ISR_Bouton_0.c **** * Summary:
 151:Generated_Source\PSoC5/ISR_Bouton_0.c **** *   The default Interrupt Service Routine for ISR_Bouton_0.
 152:Generated_Source\PSoC5/ISR_Bouton_0.c **** *
 153:Generated_Source\PSoC5/ISR_Bouton_0.c **** *   Add custom code between the coments to keep the next version of this file
 154:Generated_Source\PSoC5/ISR_Bouton_0.c **** *   from over writting your code.
 155:Generated_Source\PSoC5/ISR_Bouton_0.c **** *
 156:Generated_Source\PSoC5/ISR_Bouton_0.c **** * Parameters:  
 157:Generated_Source\PSoC5/ISR_Bouton_0.c **** *
 158:Generated_Source\PSoC5/ISR_Bouton_0.c **** * Return:
 159:Generated_Source\PSoC5/ISR_Bouton_0.c **** *   None
 160:Generated_Source\PSoC5/ISR_Bouton_0.c **** *
 161:Generated_Source\PSoC5/ISR_Bouton_0.c **** *******************************************************************************/
 162:Generated_Source\PSoC5/ISR_Bouton_0.c **** CY_ISR(ISR_Bouton_0_Interrupt)
 163:Generated_Source\PSoC5/ISR_Bouton_0.c **** {
  28              		.loc 1 163 0
  29              		.cfi_startproc
  30              		@ args = 0, pretend = 0, frame = 0
  31              		@ frame_needed = 0, uses_anonymous_args = 0
  32              		@ link register save eliminated.
 164:Generated_Source\PSoC5/ISR_Bouton_0.c ****     #ifdef ISR_Bouton_0_INTERRUPT_INTERRUPT_CALLBACK
 165:Generated_Source\PSoC5/ISR_Bouton_0.c ****         ISR_Bouton_0_Interrupt_InterruptCallback();
 166:Generated_Source\PSoC5/ISR_Bouton_0.c ****     #endif /* ISR_Bouton_0_INTERRUPT_INTERRUPT_CALLBACK */ 
 167:Generated_Source\PSoC5/ISR_Bouton_0.c **** 
 168:Generated_Source\PSoC5/ISR_Bouton_0.c ****     /*  Place your Interrupt code here. */
 169:Generated_Source\PSoC5/ISR_Bouton_0.c ****     /* `#START ISR_Bouton_0_Interrupt` */
 170:Generated_Source\PSoC5/ISR_Bouton_0.c ****         Flag_Rotary_M = 1;
  33              		.loc 1 170 0
  34 0000 0122     		movs	r2, #1
  35 0002 014B     		ldr	r3, .L2
  36 0004 1A70     		strb	r2, [r3]
  37 0006 7047     		bx	lr
  38              	.L3:
  39              		.align	2
  40              	.L2:
  41 0008 00000000 		.word	Flag_Rotary_M
  42              		.cfi_endproc
  43              	.LFE3:
  44              		.size	ISR_Bouton_0_Interrupt, .-ISR_Bouton_0_Interrupt
  45              		.section	.text.ISR_Bouton_0_SetVector,"ax",%progbits
  46              		.align	2
  47              		.global	ISR_Bouton_0_SetVector
  48              		.thumb
  49              		.thumb_func
  50              		.type	ISR_Bouton_0_SetVector, %function
  51              	ISR_Bouton_0_SetVector:
  52              	.LFB4:
 171:Generated_Source\PSoC5/ISR_Bouton_0.c ****     /* `#END` */
 172:Generated_Source\PSoC5/ISR_Bouton_0.c **** }
 173:Generated_Source\PSoC5/ISR_Bouton_0.c **** 
 174:Generated_Source\PSoC5/ISR_Bouton_0.c **** 
 175:Generated_Source\PSoC5/ISR_Bouton_0.c **** /*******************************************************************************
 176:Generated_Source\PSoC5/ISR_Bouton_0.c **** * Function Name: ISR_Bouton_0_SetVector
ARM GAS  C:\Users\etudiant\AppData\Local\Temp\ccW76VFX.s 			page 5


 177:Generated_Source\PSoC5/ISR_Bouton_0.c **** ********************************************************************************
 178:Generated_Source\PSoC5/ISR_Bouton_0.c **** *
 179:Generated_Source\PSoC5/ISR_Bouton_0.c **** * Summary:
 180:Generated_Source\PSoC5/ISR_Bouton_0.c **** *   Change the ISR vector for the Interrupt. Note calling ISR_Bouton_0_Start
 181:Generated_Source\PSoC5/ISR_Bouton_0.c **** *   will override any effect this method would have had. To set the vector 
 182:Generated_Source\PSoC5/ISR_Bouton_0.c **** *   before the component has been started use ISR_Bouton_0_StartEx instead.
 183:Generated_Source\PSoC5/ISR_Bouton_0.c **** * 
 184:Generated_Source\PSoC5/ISR_Bouton_0.c **** *   When defining ISR functions, the CY_ISR and CY_ISR_PROTO macros should be 
 185:Generated_Source\PSoC5/ISR_Bouton_0.c **** *   used to provide consistent definition across compilers:
 186:Generated_Source\PSoC5/ISR_Bouton_0.c **** *
 187:Generated_Source\PSoC5/ISR_Bouton_0.c **** *   Function definition example:
 188:Generated_Source\PSoC5/ISR_Bouton_0.c **** *   CY_ISR(MyISR)
 189:Generated_Source\PSoC5/ISR_Bouton_0.c **** *   {
 190:Generated_Source\PSoC5/ISR_Bouton_0.c **** *   }
 191:Generated_Source\PSoC5/ISR_Bouton_0.c **** *
 192:Generated_Source\PSoC5/ISR_Bouton_0.c **** *   Function prototype example:
 193:Generated_Source\PSoC5/ISR_Bouton_0.c **** *     CY_ISR_PROTO(MyISR);
 194:Generated_Source\PSoC5/ISR_Bouton_0.c **** *
 195:Generated_Source\PSoC5/ISR_Bouton_0.c **** * Parameters:
 196:Generated_Source\PSoC5/ISR_Bouton_0.c **** *   address: Address of the ISR to set in the interrupt vector table.
 197:Generated_Source\PSoC5/ISR_Bouton_0.c **** *
 198:Generated_Source\PSoC5/ISR_Bouton_0.c **** * Return:
 199:Generated_Source\PSoC5/ISR_Bouton_0.c **** *   None
 200:Generated_Source\PSoC5/ISR_Bouton_0.c **** *
 201:Generated_Source\PSoC5/ISR_Bouton_0.c **** *******************************************************************************/
 202:Generated_Source\PSoC5/ISR_Bouton_0.c **** void ISR_Bouton_0_SetVector(cyisraddress address)
 203:Generated_Source\PSoC5/ISR_Bouton_0.c **** {
  53              		.loc 1 203 0
  54              		.cfi_startproc
  55              		@ args = 0, pretend = 0, frame = 0
  56              		@ frame_needed = 0, uses_anonymous_args = 0
  57              		@ link register save eliminated.
  58              	.LVL0:
 204:Generated_Source\PSoC5/ISR_Bouton_0.c ****     cyisraddress * ramVectorTable;
 205:Generated_Source\PSoC5/ISR_Bouton_0.c **** 
 206:Generated_Source\PSoC5/ISR_Bouton_0.c ****     ramVectorTable = (cyisraddress *) *CYINT_VECT_TABLE;
  59              		.loc 1 206 0
  60 0000 014B     		ldr	r3, .L5
  61 0002 1B68     		ldr	r3, [r3]
  62              	.LVL1:
 207:Generated_Source\PSoC5/ISR_Bouton_0.c **** 
 208:Generated_Source\PSoC5/ISR_Bouton_0.c ****     ramVectorTable[CYINT_IRQ_BASE + (uint32)ISR_Bouton_0__INTC_NUMBER] = address;
  63              		.loc 1 208 0
  64 0004 1864     		str	r0, [r3, #64]
  65 0006 7047     		bx	lr
  66              	.L6:
  67              		.align	2
  68              	.L5:
  69 0008 08ED00E0 		.word	-536810232
  70              		.cfi_endproc
  71              	.LFE4:
  72              		.size	ISR_Bouton_0_SetVector, .-ISR_Bouton_0_SetVector
  73              		.section	.text.ISR_Bouton_0_GetVector,"ax",%progbits
  74              		.align	2
  75              		.global	ISR_Bouton_0_GetVector
  76              		.thumb
  77              		.thumb_func
ARM GAS  C:\Users\etudiant\AppData\Local\Temp\ccW76VFX.s 			page 6


  78              		.type	ISR_Bouton_0_GetVector, %function
  79              	ISR_Bouton_0_GetVector:
  80              	.LFB5:
 209:Generated_Source\PSoC5/ISR_Bouton_0.c **** }
 210:Generated_Source\PSoC5/ISR_Bouton_0.c **** 
 211:Generated_Source\PSoC5/ISR_Bouton_0.c **** 
 212:Generated_Source\PSoC5/ISR_Bouton_0.c **** /*******************************************************************************
 213:Generated_Source\PSoC5/ISR_Bouton_0.c **** * Function Name: ISR_Bouton_0_GetVector
 214:Generated_Source\PSoC5/ISR_Bouton_0.c **** ********************************************************************************
 215:Generated_Source\PSoC5/ISR_Bouton_0.c **** *
 216:Generated_Source\PSoC5/ISR_Bouton_0.c **** * Summary:
 217:Generated_Source\PSoC5/ISR_Bouton_0.c **** *   Gets the "address" of the current ISR vector for the Interrupt.
 218:Generated_Source\PSoC5/ISR_Bouton_0.c **** *
 219:Generated_Source\PSoC5/ISR_Bouton_0.c **** * Parameters:
 220:Generated_Source\PSoC5/ISR_Bouton_0.c **** *   None
 221:Generated_Source\PSoC5/ISR_Bouton_0.c **** *
 222:Generated_Source\PSoC5/ISR_Bouton_0.c **** * Return:
 223:Generated_Source\PSoC5/ISR_Bouton_0.c **** *   Address of the ISR in the interrupt vector table.
 224:Generated_Source\PSoC5/ISR_Bouton_0.c **** *
 225:Generated_Source\PSoC5/ISR_Bouton_0.c **** *******************************************************************************/
 226:Generated_Source\PSoC5/ISR_Bouton_0.c **** cyisraddress ISR_Bouton_0_GetVector(void)
 227:Generated_Source\PSoC5/ISR_Bouton_0.c **** {
  81              		.loc 1 227 0
  82              		.cfi_startproc
  83              		@ args = 0, pretend = 0, frame = 0
  84              		@ frame_needed = 0, uses_anonymous_args = 0
  85              		@ link register save eliminated.
 228:Generated_Source\PSoC5/ISR_Bouton_0.c ****     cyisraddress * ramVectorTable;
 229:Generated_Source\PSoC5/ISR_Bouton_0.c **** 
 230:Generated_Source\PSoC5/ISR_Bouton_0.c ****     ramVectorTable = (cyisraddress *) *CYINT_VECT_TABLE;
  86              		.loc 1 230 0
  87 0000 014B     		ldr	r3, .L8
  88 0002 1B68     		ldr	r3, [r3]
  89              	.LVL2:
 231:Generated_Source\PSoC5/ISR_Bouton_0.c **** 
 232:Generated_Source\PSoC5/ISR_Bouton_0.c ****     return ramVectorTable[CYINT_IRQ_BASE + (uint32)ISR_Bouton_0__INTC_NUMBER];
 233:Generated_Source\PSoC5/ISR_Bouton_0.c **** }
  90              		.loc 1 233 0
  91 0004 186C     		ldr	r0, [r3, #64]
  92 0006 7047     		bx	lr
  93              	.L9:
  94              		.align	2
  95              	.L8:
  96 0008 08ED00E0 		.word	-536810232
  97              		.cfi_endproc
  98              	.LFE5:
  99              		.size	ISR_Bouton_0_GetVector, .-ISR_Bouton_0_GetVector
 100              		.section	.text.ISR_Bouton_0_SetPriority,"ax",%progbits
 101              		.align	2
 102              		.global	ISR_Bouton_0_SetPriority
 103              		.thumb
 104              		.thumb_func
 105              		.type	ISR_Bouton_0_SetPriority, %function
 106              	ISR_Bouton_0_SetPriority:
 107              	.LFB6:
 234:Generated_Source\PSoC5/ISR_Bouton_0.c **** 
 235:Generated_Source\PSoC5/ISR_Bouton_0.c **** 
ARM GAS  C:\Users\etudiant\AppData\Local\Temp\ccW76VFX.s 			page 7


 236:Generated_Source\PSoC5/ISR_Bouton_0.c **** /*******************************************************************************
 237:Generated_Source\PSoC5/ISR_Bouton_0.c **** * Function Name: ISR_Bouton_0_SetPriority
 238:Generated_Source\PSoC5/ISR_Bouton_0.c **** ********************************************************************************
 239:Generated_Source\PSoC5/ISR_Bouton_0.c **** *
 240:Generated_Source\PSoC5/ISR_Bouton_0.c **** * Summary:
 241:Generated_Source\PSoC5/ISR_Bouton_0.c **** *   Sets the Priority of the Interrupt. 
 242:Generated_Source\PSoC5/ISR_Bouton_0.c **** *
 243:Generated_Source\PSoC5/ISR_Bouton_0.c **** *   Note calling ISR_Bouton_0_Start or ISR_Bouton_0_StartEx will 
 244:Generated_Source\PSoC5/ISR_Bouton_0.c **** *   override any effect this API would have had. This API should only be called
 245:Generated_Source\PSoC5/ISR_Bouton_0.c **** *   after ISR_Bouton_0_Start or ISR_Bouton_0_StartEx has been called. 
 246:Generated_Source\PSoC5/ISR_Bouton_0.c **** *   To set the initial priority for the component, use the Design-Wide Resources
 247:Generated_Source\PSoC5/ISR_Bouton_0.c **** *   Interrupt Editor.
 248:Generated_Source\PSoC5/ISR_Bouton_0.c **** *
 249:Generated_Source\PSoC5/ISR_Bouton_0.c **** *   Note This API has no effect on Non-maskable interrupt NMI).
 250:Generated_Source\PSoC5/ISR_Bouton_0.c **** *
 251:Generated_Source\PSoC5/ISR_Bouton_0.c **** * Parameters:
 252:Generated_Source\PSoC5/ISR_Bouton_0.c **** *   priority: Priority of the interrupt, 0 being the highest priority
 253:Generated_Source\PSoC5/ISR_Bouton_0.c **** *             PSoC 3 and PSoC 5LP: Priority is from 0 to 7.
 254:Generated_Source\PSoC5/ISR_Bouton_0.c **** *             PSoC 4: Priority is from 0 to 3.
 255:Generated_Source\PSoC5/ISR_Bouton_0.c **** *
 256:Generated_Source\PSoC5/ISR_Bouton_0.c **** * Return:
 257:Generated_Source\PSoC5/ISR_Bouton_0.c **** *   None
 258:Generated_Source\PSoC5/ISR_Bouton_0.c **** *
 259:Generated_Source\PSoC5/ISR_Bouton_0.c **** *******************************************************************************/
 260:Generated_Source\PSoC5/ISR_Bouton_0.c **** void ISR_Bouton_0_SetPriority(uint8 priority)
 261:Generated_Source\PSoC5/ISR_Bouton_0.c **** {
 108              		.loc 1 261 0
 109              		.cfi_startproc
 110              		@ args = 0, pretend = 0, frame = 0
 111              		@ frame_needed = 0, uses_anonymous_args = 0
 112              		@ link register save eliminated.
 113              	.LVL3:
 262:Generated_Source\PSoC5/ISR_Bouton_0.c ****     *ISR_Bouton_0_INTC_PRIOR = priority << 5;
 114              		.loc 1 262 0
 115 0000 4001     		lsls	r0, r0, #5
 116              	.LVL4:
 117 0002 C0B2     		uxtb	r0, r0
 118 0004 014B     		ldr	r3, .L11
 119 0006 1870     		strb	r0, [r3]
 120 0008 7047     		bx	lr
 121              	.L12:
 122 000a 00BF     		.align	2
 123              	.L11:
 124 000c 00E400E0 		.word	-536812544
 125              		.cfi_endproc
 126              	.LFE6:
 127              		.size	ISR_Bouton_0_SetPriority, .-ISR_Bouton_0_SetPriority
 128              		.section	.text.ISR_Bouton_0_GetPriority,"ax",%progbits
 129              		.align	2
 130              		.global	ISR_Bouton_0_GetPriority
 131              		.thumb
 132              		.thumb_func
 133              		.type	ISR_Bouton_0_GetPriority, %function
 134              	ISR_Bouton_0_GetPriority:
 135              	.LFB7:
 263:Generated_Source\PSoC5/ISR_Bouton_0.c **** }
 264:Generated_Source\PSoC5/ISR_Bouton_0.c **** 
ARM GAS  C:\Users\etudiant\AppData\Local\Temp\ccW76VFX.s 			page 8


 265:Generated_Source\PSoC5/ISR_Bouton_0.c **** 
 266:Generated_Source\PSoC5/ISR_Bouton_0.c **** /*******************************************************************************
 267:Generated_Source\PSoC5/ISR_Bouton_0.c **** * Function Name: ISR_Bouton_0_GetPriority
 268:Generated_Source\PSoC5/ISR_Bouton_0.c **** ********************************************************************************
 269:Generated_Source\PSoC5/ISR_Bouton_0.c **** *
 270:Generated_Source\PSoC5/ISR_Bouton_0.c **** * Summary:
 271:Generated_Source\PSoC5/ISR_Bouton_0.c **** *   Gets the Priority of the Interrupt.
 272:Generated_Source\PSoC5/ISR_Bouton_0.c **** *
 273:Generated_Source\PSoC5/ISR_Bouton_0.c **** * Parameters:
 274:Generated_Source\PSoC5/ISR_Bouton_0.c **** *   None
 275:Generated_Source\PSoC5/ISR_Bouton_0.c **** *
 276:Generated_Source\PSoC5/ISR_Bouton_0.c **** * Return:
 277:Generated_Source\PSoC5/ISR_Bouton_0.c **** *   Priority of the interrupt, 0 being the highest priority
 278:Generated_Source\PSoC5/ISR_Bouton_0.c **** *    PSoC 3 and PSoC 5LP: Priority is from 0 to 7.
 279:Generated_Source\PSoC5/ISR_Bouton_0.c **** *    PSoC 4: Priority is from 0 to 3.
 280:Generated_Source\PSoC5/ISR_Bouton_0.c **** *
 281:Generated_Source\PSoC5/ISR_Bouton_0.c **** *******************************************************************************/
 282:Generated_Source\PSoC5/ISR_Bouton_0.c **** uint8 ISR_Bouton_0_GetPriority(void)
 283:Generated_Source\PSoC5/ISR_Bouton_0.c **** {
 136              		.loc 1 283 0
 137              		.cfi_startproc
 138              		@ args = 0, pretend = 0, frame = 0
 139              		@ frame_needed = 0, uses_anonymous_args = 0
 140              		@ link register save eliminated.
 284:Generated_Source\PSoC5/ISR_Bouton_0.c ****     uint8 priority;
 285:Generated_Source\PSoC5/ISR_Bouton_0.c **** 
 286:Generated_Source\PSoC5/ISR_Bouton_0.c **** 
 287:Generated_Source\PSoC5/ISR_Bouton_0.c ****     priority = *ISR_Bouton_0_INTC_PRIOR >> 5;
 141              		.loc 1 287 0
 142 0000 014B     		ldr	r3, .L14
 143 0002 1878     		ldrb	r0, [r3]	@ zero_extendqisi2
 144              	.LVL5:
 288:Generated_Source\PSoC5/ISR_Bouton_0.c **** 
 289:Generated_Source\PSoC5/ISR_Bouton_0.c ****     return priority;
 290:Generated_Source\PSoC5/ISR_Bouton_0.c **** }
 145              		.loc 1 290 0
 146 0004 4009     		lsrs	r0, r0, #5
 147              	.LVL6:
 148 0006 7047     		bx	lr
 149              	.L15:
 150              		.align	2
 151              	.L14:
 152 0008 00E400E0 		.word	-536812544
 153              		.cfi_endproc
 154              	.LFE7:
 155              		.size	ISR_Bouton_0_GetPriority, .-ISR_Bouton_0_GetPriority
 156              		.section	.text.ISR_Bouton_0_Enable,"ax",%progbits
 157              		.align	2
 158              		.global	ISR_Bouton_0_Enable
 159              		.thumb
 160              		.thumb_func
 161              		.type	ISR_Bouton_0_Enable, %function
 162              	ISR_Bouton_0_Enable:
 163              	.LFB8:
 291:Generated_Source\PSoC5/ISR_Bouton_0.c **** 
 292:Generated_Source\PSoC5/ISR_Bouton_0.c **** 
 293:Generated_Source\PSoC5/ISR_Bouton_0.c **** /*******************************************************************************
ARM GAS  C:\Users\etudiant\AppData\Local\Temp\ccW76VFX.s 			page 9


 294:Generated_Source\PSoC5/ISR_Bouton_0.c **** * Function Name: ISR_Bouton_0_Enable
 295:Generated_Source\PSoC5/ISR_Bouton_0.c **** ********************************************************************************
 296:Generated_Source\PSoC5/ISR_Bouton_0.c **** *
 297:Generated_Source\PSoC5/ISR_Bouton_0.c **** * Summary:
 298:Generated_Source\PSoC5/ISR_Bouton_0.c **** *   Enables the interrupt to the interrupt controller. Do not call this function
 299:Generated_Source\PSoC5/ISR_Bouton_0.c **** *   unless ISR_Start() has been called or the functionality of the ISR_Start() 
 300:Generated_Source\PSoC5/ISR_Bouton_0.c **** *   function, which sets the vector and the priority, has been called.
 301:Generated_Source\PSoC5/ISR_Bouton_0.c **** *
 302:Generated_Source\PSoC5/ISR_Bouton_0.c **** * Parameters:
 303:Generated_Source\PSoC5/ISR_Bouton_0.c **** *   None
 304:Generated_Source\PSoC5/ISR_Bouton_0.c **** *
 305:Generated_Source\PSoC5/ISR_Bouton_0.c **** * Return:
 306:Generated_Source\PSoC5/ISR_Bouton_0.c **** *   None
 307:Generated_Source\PSoC5/ISR_Bouton_0.c **** *
 308:Generated_Source\PSoC5/ISR_Bouton_0.c **** *******************************************************************************/
 309:Generated_Source\PSoC5/ISR_Bouton_0.c **** void ISR_Bouton_0_Enable(void)
 310:Generated_Source\PSoC5/ISR_Bouton_0.c **** {
 164              		.loc 1 310 0
 165              		.cfi_startproc
 166              		@ args = 0, pretend = 0, frame = 0
 167              		@ frame_needed = 0, uses_anonymous_args = 0
 168              		@ link register save eliminated.
 311:Generated_Source\PSoC5/ISR_Bouton_0.c ****     /* Enable the general interrupt. */
 312:Generated_Source\PSoC5/ISR_Bouton_0.c ****     *ISR_Bouton_0_INTC_SET_EN = ISR_Bouton_0__INTC_MASK;
 169              		.loc 1 312 0
 170 0000 0122     		movs	r2, #1
 171 0002 014B     		ldr	r3, .L17
 172 0004 1A60     		str	r2, [r3]
 173 0006 7047     		bx	lr
 174              	.L18:
 175              		.align	2
 176              	.L17:
 177 0008 00E100E0 		.word	-536813312
 178              		.cfi_endproc
 179              	.LFE8:
 180              		.size	ISR_Bouton_0_Enable, .-ISR_Bouton_0_Enable
 181              		.section	.text.ISR_Bouton_0_GetState,"ax",%progbits
 182              		.align	2
 183              		.global	ISR_Bouton_0_GetState
 184              		.thumb
 185              		.thumb_func
 186              		.type	ISR_Bouton_0_GetState, %function
 187              	ISR_Bouton_0_GetState:
 188              	.LFB9:
 313:Generated_Source\PSoC5/ISR_Bouton_0.c **** }
 314:Generated_Source\PSoC5/ISR_Bouton_0.c **** 
 315:Generated_Source\PSoC5/ISR_Bouton_0.c **** 
 316:Generated_Source\PSoC5/ISR_Bouton_0.c **** /*******************************************************************************
 317:Generated_Source\PSoC5/ISR_Bouton_0.c **** * Function Name: ISR_Bouton_0_GetState
 318:Generated_Source\PSoC5/ISR_Bouton_0.c **** ********************************************************************************
 319:Generated_Source\PSoC5/ISR_Bouton_0.c **** *
 320:Generated_Source\PSoC5/ISR_Bouton_0.c **** * Summary:
 321:Generated_Source\PSoC5/ISR_Bouton_0.c **** *   Gets the state (enabled, disabled) of the Interrupt.
 322:Generated_Source\PSoC5/ISR_Bouton_0.c **** *
 323:Generated_Source\PSoC5/ISR_Bouton_0.c **** * Parameters:
 324:Generated_Source\PSoC5/ISR_Bouton_0.c **** *   None
 325:Generated_Source\PSoC5/ISR_Bouton_0.c **** *
ARM GAS  C:\Users\etudiant\AppData\Local\Temp\ccW76VFX.s 			page 10


 326:Generated_Source\PSoC5/ISR_Bouton_0.c **** * Return:
 327:Generated_Source\PSoC5/ISR_Bouton_0.c **** *   1 if enabled, 0 if disabled.
 328:Generated_Source\PSoC5/ISR_Bouton_0.c **** *
 329:Generated_Source\PSoC5/ISR_Bouton_0.c **** *******************************************************************************/
 330:Generated_Source\PSoC5/ISR_Bouton_0.c **** uint8 ISR_Bouton_0_GetState(void)
 331:Generated_Source\PSoC5/ISR_Bouton_0.c **** {
 189              		.loc 1 331 0
 190              		.cfi_startproc
 191              		@ args = 0, pretend = 0, frame = 0
 192              		@ frame_needed = 0, uses_anonymous_args = 0
 193              		@ link register save eliminated.
 332:Generated_Source\PSoC5/ISR_Bouton_0.c ****     /* Get the state of the general interrupt. */
 333:Generated_Source\PSoC5/ISR_Bouton_0.c ****     return ((*ISR_Bouton_0_INTC_SET_EN & (uint32)ISR_Bouton_0__INTC_MASK) != 0u) ? 1u:0u;
 194              		.loc 1 333 0
 195 0000 024B     		ldr	r3, .L20
 196 0002 1868     		ldr	r0, [r3]
 334:Generated_Source\PSoC5/ISR_Bouton_0.c **** }
 197              		.loc 1 334 0
 198 0004 00F00100 		and	r0, r0, #1
 199 0008 7047     		bx	lr
 200              	.L21:
 201 000a 00BF     		.align	2
 202              	.L20:
 203 000c 00E100E0 		.word	-536813312
 204              		.cfi_endproc
 205              	.LFE9:
 206              		.size	ISR_Bouton_0_GetState, .-ISR_Bouton_0_GetState
 207              		.section	.text.ISR_Bouton_0_Disable,"ax",%progbits
 208              		.align	2
 209              		.global	ISR_Bouton_0_Disable
 210              		.thumb
 211              		.thumb_func
 212              		.type	ISR_Bouton_0_Disable, %function
 213              	ISR_Bouton_0_Disable:
 214              	.LFB10:
 335:Generated_Source\PSoC5/ISR_Bouton_0.c **** 
 336:Generated_Source\PSoC5/ISR_Bouton_0.c **** 
 337:Generated_Source\PSoC5/ISR_Bouton_0.c **** /*******************************************************************************
 338:Generated_Source\PSoC5/ISR_Bouton_0.c **** * Function Name: ISR_Bouton_0_Disable
 339:Generated_Source\PSoC5/ISR_Bouton_0.c **** ********************************************************************************
 340:Generated_Source\PSoC5/ISR_Bouton_0.c **** *
 341:Generated_Source\PSoC5/ISR_Bouton_0.c **** * Summary:
 342:Generated_Source\PSoC5/ISR_Bouton_0.c **** *   Disables the Interrupt in the interrupt controller.
 343:Generated_Source\PSoC5/ISR_Bouton_0.c **** *
 344:Generated_Source\PSoC5/ISR_Bouton_0.c **** * Parameters:
 345:Generated_Source\PSoC5/ISR_Bouton_0.c **** *   None
 346:Generated_Source\PSoC5/ISR_Bouton_0.c **** *
 347:Generated_Source\PSoC5/ISR_Bouton_0.c **** * Return:
 348:Generated_Source\PSoC5/ISR_Bouton_0.c **** *   None
 349:Generated_Source\PSoC5/ISR_Bouton_0.c **** *
 350:Generated_Source\PSoC5/ISR_Bouton_0.c **** *******************************************************************************/
 351:Generated_Source\PSoC5/ISR_Bouton_0.c **** void ISR_Bouton_0_Disable(void)
 352:Generated_Source\PSoC5/ISR_Bouton_0.c **** {
 215              		.loc 1 352 0
 216              		.cfi_startproc
 217              		@ args = 0, pretend = 0, frame = 0
 218              		@ frame_needed = 0, uses_anonymous_args = 0
ARM GAS  C:\Users\etudiant\AppData\Local\Temp\ccW76VFX.s 			page 11


 219              		@ link register save eliminated.
 353:Generated_Source\PSoC5/ISR_Bouton_0.c ****     /* Disable the general interrupt. */
 354:Generated_Source\PSoC5/ISR_Bouton_0.c ****     *ISR_Bouton_0_INTC_CLR_EN = ISR_Bouton_0__INTC_MASK;
 220              		.loc 1 354 0
 221 0000 0122     		movs	r2, #1
 222 0002 014B     		ldr	r3, .L23
 223 0004 1A60     		str	r2, [r3]
 224 0006 7047     		bx	lr
 225              	.L24:
 226              		.align	2
 227              	.L23:
 228 0008 80E100E0 		.word	-536813184
 229              		.cfi_endproc
 230              	.LFE10:
 231              		.size	ISR_Bouton_0_Disable, .-ISR_Bouton_0_Disable
 232              		.section	.text.ISR_Bouton_0_Start,"ax",%progbits
 233              		.align	2
 234              		.global	ISR_Bouton_0_Start
 235              		.thumb
 236              		.thumb_func
 237              		.type	ISR_Bouton_0_Start, %function
 238              	ISR_Bouton_0_Start:
 239              	.LFB0:
  64:Generated_Source\PSoC5/ISR_Bouton_0.c ****     /* For all we know the interrupt is active. */
 240              		.loc 1 64 0
 241              		.cfi_startproc
 242              		@ args = 0, pretend = 0, frame = 0
 243              		@ frame_needed = 0, uses_anonymous_args = 0
 244 0000 08B5     		push	{r3, lr}
 245              		.cfi_def_cfa_offset 8
 246              		.cfi_offset 3, -8
 247              		.cfi_offset 14, -4
  66:Generated_Source\PSoC5/ISR_Bouton_0.c **** 
 248              		.loc 1 66 0
 249 0002 FFF7FEFF 		bl	ISR_Bouton_0_Disable
 250              	.LVL7:
  69:Generated_Source\PSoC5/ISR_Bouton_0.c **** 
 251              		.loc 1 69 0
 252 0006 0448     		ldr	r0, .L27
 253 0008 FFF7FEFF 		bl	ISR_Bouton_0_SetVector
 254              	.LVL8:
  72:Generated_Source\PSoC5/ISR_Bouton_0.c **** 
 255              		.loc 1 72 0
 256 000c 0020     		movs	r0, #0
 257 000e FFF7FEFF 		bl	ISR_Bouton_0_SetPriority
 258              	.LVL9:
  75:Generated_Source\PSoC5/ISR_Bouton_0.c **** }
 259              		.loc 1 75 0
 260 0012 FFF7FEFF 		bl	ISR_Bouton_0_Enable
 261              	.LVL10:
 262 0016 08BD     		pop	{r3, pc}
 263              	.L28:
 264              		.align	2
 265              	.L27:
 266 0018 00000000 		.word	ISR_Bouton_0_Interrupt
 267              		.cfi_endproc
 268              	.LFE0:
ARM GAS  C:\Users\etudiant\AppData\Local\Temp\ccW76VFX.s 			page 12


 269              		.size	ISR_Bouton_0_Start, .-ISR_Bouton_0_Start
 270              		.section	.text.ISR_Bouton_0_StartEx,"ax",%progbits
 271              		.align	2
 272              		.global	ISR_Bouton_0_StartEx
 273              		.thumb
 274              		.thumb_func
 275              		.type	ISR_Bouton_0_StartEx, %function
 276              	ISR_Bouton_0_StartEx:
 277              	.LFB1:
 107:Generated_Source\PSoC5/ISR_Bouton_0.c ****     /* For all we know the interrupt is active. */
 278              		.loc 1 107 0
 279              		.cfi_startproc
 280              		@ args = 0, pretend = 0, frame = 0
 281              		@ frame_needed = 0, uses_anonymous_args = 0
 282              	.LVL11:
 283 0000 10B5     		push	{r4, lr}
 284              		.cfi_def_cfa_offset 8
 285              		.cfi_offset 4, -8
 286              		.cfi_offset 14, -4
 287 0002 0446     		mov	r4, r0
 109:Generated_Source\PSoC5/ISR_Bouton_0.c **** 
 288              		.loc 1 109 0
 289 0004 FFF7FEFF 		bl	ISR_Bouton_0_Disable
 290              	.LVL12:
 112:Generated_Source\PSoC5/ISR_Bouton_0.c **** 
 291              		.loc 1 112 0
 292 0008 2046     		mov	r0, r4
 293 000a FFF7FEFF 		bl	ISR_Bouton_0_SetVector
 294              	.LVL13:
 115:Generated_Source\PSoC5/ISR_Bouton_0.c **** 
 295              		.loc 1 115 0
 296 000e 0020     		movs	r0, #0
 297 0010 FFF7FEFF 		bl	ISR_Bouton_0_SetPriority
 298              	.LVL14:
 118:Generated_Source\PSoC5/ISR_Bouton_0.c **** }
 299              		.loc 1 118 0
 300 0014 FFF7FEFF 		bl	ISR_Bouton_0_Enable
 301              	.LVL15:
 302 0018 10BD     		pop	{r4, pc}
 303              		.cfi_endproc
 304              	.LFE1:
 305              		.size	ISR_Bouton_0_StartEx, .-ISR_Bouton_0_StartEx
 306 001a 00BF     		.section	.text.ISR_Bouton_0_Stop,"ax",%progbits
 307              		.align	2
 308              		.global	ISR_Bouton_0_Stop
 309              		.thumb
 310              		.thumb_func
 311              		.type	ISR_Bouton_0_Stop, %function
 312              	ISR_Bouton_0_Stop:
 313              	.LFB2:
 137:Generated_Source\PSoC5/ISR_Bouton_0.c ****     /* Disable this interrupt. */
 314              		.loc 1 137 0
 315              		.cfi_startproc
 316              		@ args = 0, pretend = 0, frame = 0
 317              		@ frame_needed = 0, uses_anonymous_args = 0
 318 0000 08B5     		push	{r3, lr}
 319              		.cfi_def_cfa_offset 8
ARM GAS  C:\Users\etudiant\AppData\Local\Temp\ccW76VFX.s 			page 13


 320              		.cfi_offset 3, -8
 321              		.cfi_offset 14, -4
 139:Generated_Source\PSoC5/ISR_Bouton_0.c **** 
 322              		.loc 1 139 0
 323 0002 FFF7FEFF 		bl	ISR_Bouton_0_Disable
 324              	.LVL16:
 142:Generated_Source\PSoC5/ISR_Bouton_0.c **** }
 325              		.loc 1 142 0
 326 0006 0248     		ldr	r0, .L33
 327 0008 FFF7FEFF 		bl	ISR_Bouton_0_SetVector
 328              	.LVL17:
 329 000c 08BD     		pop	{r3, pc}
 330              	.L34:
 331 000e 00BF     		.align	2
 332              	.L33:
 333 0010 00000000 		.word	IntDefaultHandler
 334              		.cfi_endproc
 335              	.LFE2:
 336              		.size	ISR_Bouton_0_Stop, .-ISR_Bouton_0_Stop
 337              		.section	.text.ISR_Bouton_0_SetPending,"ax",%progbits
 338              		.align	2
 339              		.global	ISR_Bouton_0_SetPending
 340              		.thumb
 341              		.thumb_func
 342              		.type	ISR_Bouton_0_SetPending, %function
 343              	ISR_Bouton_0_SetPending:
 344              	.LFB11:
 355:Generated_Source\PSoC5/ISR_Bouton_0.c **** }
 356:Generated_Source\PSoC5/ISR_Bouton_0.c **** 
 357:Generated_Source\PSoC5/ISR_Bouton_0.c **** 
 358:Generated_Source\PSoC5/ISR_Bouton_0.c **** /*******************************************************************************
 359:Generated_Source\PSoC5/ISR_Bouton_0.c **** * Function Name: ISR_Bouton_0_SetPending
 360:Generated_Source\PSoC5/ISR_Bouton_0.c **** ********************************************************************************
 361:Generated_Source\PSoC5/ISR_Bouton_0.c **** *
 362:Generated_Source\PSoC5/ISR_Bouton_0.c **** * Summary:
 363:Generated_Source\PSoC5/ISR_Bouton_0.c **** *   Causes the Interrupt to enter the pending state, a software method of
 364:Generated_Source\PSoC5/ISR_Bouton_0.c **** *   generating the interrupt.
 365:Generated_Source\PSoC5/ISR_Bouton_0.c **** *
 366:Generated_Source\PSoC5/ISR_Bouton_0.c **** * Parameters:
 367:Generated_Source\PSoC5/ISR_Bouton_0.c **** *   None
 368:Generated_Source\PSoC5/ISR_Bouton_0.c **** *
 369:Generated_Source\PSoC5/ISR_Bouton_0.c **** * Return:
 370:Generated_Source\PSoC5/ISR_Bouton_0.c **** *   None
 371:Generated_Source\PSoC5/ISR_Bouton_0.c **** *
 372:Generated_Source\PSoC5/ISR_Bouton_0.c **** * Side Effects:
 373:Generated_Source\PSoC5/ISR_Bouton_0.c **** *   If interrupts are enabled and the interrupt is set up properly, the ISR is
 374:Generated_Source\PSoC5/ISR_Bouton_0.c **** *   entered (depending on the priority of this interrupt and other pending 
 375:Generated_Source\PSoC5/ISR_Bouton_0.c **** *   interrupts).
 376:Generated_Source\PSoC5/ISR_Bouton_0.c **** *
 377:Generated_Source\PSoC5/ISR_Bouton_0.c **** *******************************************************************************/
 378:Generated_Source\PSoC5/ISR_Bouton_0.c **** void ISR_Bouton_0_SetPending(void)
 379:Generated_Source\PSoC5/ISR_Bouton_0.c **** {
 345              		.loc 1 379 0
 346              		.cfi_startproc
 347              		@ args = 0, pretend = 0, frame = 0
 348              		@ frame_needed = 0, uses_anonymous_args = 0
 349              		@ link register save eliminated.
ARM GAS  C:\Users\etudiant\AppData\Local\Temp\ccW76VFX.s 			page 14


 380:Generated_Source\PSoC5/ISR_Bouton_0.c ****     *ISR_Bouton_0_INTC_SET_PD = ISR_Bouton_0__INTC_MASK;
 350              		.loc 1 380 0
 351 0000 0122     		movs	r2, #1
 352 0002 014B     		ldr	r3, .L36
 353 0004 1A60     		str	r2, [r3]
 354 0006 7047     		bx	lr
 355              	.L37:
 356              		.align	2
 357              	.L36:
 358 0008 00E200E0 		.word	-536813056
 359              		.cfi_endproc
 360              	.LFE11:
 361              		.size	ISR_Bouton_0_SetPending, .-ISR_Bouton_0_SetPending
 362              		.section	.text.ISR_Bouton_0_ClearPending,"ax",%progbits
 363              		.align	2
 364              		.global	ISR_Bouton_0_ClearPending
 365              		.thumb
 366              		.thumb_func
 367              		.type	ISR_Bouton_0_ClearPending, %function
 368              	ISR_Bouton_0_ClearPending:
 369              	.LFB12:
 381:Generated_Source\PSoC5/ISR_Bouton_0.c **** }
 382:Generated_Source\PSoC5/ISR_Bouton_0.c **** 
 383:Generated_Source\PSoC5/ISR_Bouton_0.c **** 
 384:Generated_Source\PSoC5/ISR_Bouton_0.c **** /*******************************************************************************
 385:Generated_Source\PSoC5/ISR_Bouton_0.c **** * Function Name: ISR_Bouton_0_ClearPending
 386:Generated_Source\PSoC5/ISR_Bouton_0.c **** ********************************************************************************
 387:Generated_Source\PSoC5/ISR_Bouton_0.c **** *
 388:Generated_Source\PSoC5/ISR_Bouton_0.c **** * Summary:
 389:Generated_Source\PSoC5/ISR_Bouton_0.c **** *   Clears a pending interrupt in the interrupt controller.
 390:Generated_Source\PSoC5/ISR_Bouton_0.c **** *
 391:Generated_Source\PSoC5/ISR_Bouton_0.c **** *   Note Some interrupt sources are clear-on-read and require the block 
 392:Generated_Source\PSoC5/ISR_Bouton_0.c **** *   interrupt/status register to be read/cleared with the appropriate block API 
 393:Generated_Source\PSoC5/ISR_Bouton_0.c **** *   (GPIO, UART, and so on). Otherwise the ISR will continue to remain in 
 394:Generated_Source\PSoC5/ISR_Bouton_0.c **** *   pending state even though the interrupt itself is cleared using this API.
 395:Generated_Source\PSoC5/ISR_Bouton_0.c **** *
 396:Generated_Source\PSoC5/ISR_Bouton_0.c **** * Parameters:
 397:Generated_Source\PSoC5/ISR_Bouton_0.c **** *   None
 398:Generated_Source\PSoC5/ISR_Bouton_0.c **** *
 399:Generated_Source\PSoC5/ISR_Bouton_0.c **** * Return:
 400:Generated_Source\PSoC5/ISR_Bouton_0.c **** *   None
 401:Generated_Source\PSoC5/ISR_Bouton_0.c **** *
 402:Generated_Source\PSoC5/ISR_Bouton_0.c **** *******************************************************************************/
 403:Generated_Source\PSoC5/ISR_Bouton_0.c **** void ISR_Bouton_0_ClearPending(void)
 404:Generated_Source\PSoC5/ISR_Bouton_0.c **** {
 370              		.loc 1 404 0
 371              		.cfi_startproc
 372              		@ args = 0, pretend = 0, frame = 0
 373              		@ frame_needed = 0, uses_anonymous_args = 0
 374              		@ link register save eliminated.
 405:Generated_Source\PSoC5/ISR_Bouton_0.c ****     *ISR_Bouton_0_INTC_CLR_PD = ISR_Bouton_0__INTC_MASK;
 375              		.loc 1 405 0
 376 0000 0122     		movs	r2, #1
 377 0002 014B     		ldr	r3, .L39
 378 0004 1A60     		str	r2, [r3]
 379 0006 7047     		bx	lr
 380              	.L40:
ARM GAS  C:\Users\etudiant\AppData\Local\Temp\ccW76VFX.s 			page 15


 381              		.align	2
 382              	.L39:
 383 0008 80E200E0 		.word	-536812928
 384              		.cfi_endproc
 385              	.LFE12:
 386              		.size	ISR_Bouton_0_ClearPending, .-ISR_Bouton_0_ClearPending
 387              		.text
 388              	.Letext0:
 389              		.file 2 "Generated_Source\\PSoC5/cytypes.h"